;
; Copyright (c) Microsoft Corporation.  All rights reserved.
;
;
; Use of this source code is subject to the terms of the Microsoft end-user
; license agreement (EULA) under which you licensed this SOFTWARE PRODUCT.
; If you did not accept the terms of the EULA, you are not authorized to use
; this source code. For a copy of the EULA, please see the LICENSE.RTF on your
; install media.
;

LIBRARY olece400  
EXPORTS             

;;;;;;;;;;;;;;;;;;;;;;;;;;;;;;;;;;;;;;;;;;;;;;;;;;;;;;;
;   evc4.x compiler version specific section.
;   compatible with apps that consume the provided mfcdll's and are built with new or old compilers 
;   old name is exported at original ordinal
;   new decoration exposed at a new ordinal and aliased to original 4.x name decoration
;   this ensures that applications built with 7.x compilers will link with the 4.x dlls
;   comment out this section of defs if building your own mfc with 7.x compiler
                                                           
    ??_H@YAXPAXIHP6AX0@Z@Z @ 18 NONAME
    ??_H@YAXPAXIHP6APAX0@Z@Z=??_H@YAXPAXIHP6AX0@Z@Z @ 1715 NONAME

    ?ConstructElements@@YAXPAVCOleVariant@@H@Z @ 547 NONAME
    ??$ConstructElements@VCOleVariant@@@@YAXPAVCOleVariant@@H@Z=?ConstructElements@@YAXPAVCOleVariant@@H@Z @ 1716 NONAME

    ?CopyElements@@YAXPAVCOleVariant@@PBV1@H@Z @ 554 NONAME
    ??$CopyElements@VCOleVariant@@@@YAXPAVCOleVariant@@PBV0@H@Z=?CopyElements@@YAXPAVCOleVariant@@PBV1@H@Z @ 1717 NONAME

    ?DestructElements@@YAXPAVCOleVariant@@H@Z @ 656 NONAME
    ??$DestructElements@VCOleVariant@@@@YAXPAVCOleVariant@@H@Z=?DestructElements@@YAXPAVCOleVariant@@H@Z @ 1718 NONAME

    ?HashKey@@YAIABUtagVARIANT@@@Z @ 1014 NONAME
    ??$HashKey@ABUtagVARIANT@@@@YAIABUtagVARIANT@@@Z=?HashKey@@YAIABUtagVARIANT@@@Z @ 1719 NONAME

    ?SerializeElements@@YAXAAVCArchive@@PAVCOleVariant@@H@Z @ 1469 NONAME
    ??$SerializeElements@VCOleVariant@@@@YAXAAVCArchive@@PAVCOleVariant@@H@Z=?SerializeElements@@YAXAAVCArchive@@PAVCOleVariant@@H@Z @ 1720 NONAME
;end 4.x compiler specific section
;;;;;;;;;;;;;;;;;;;;;;;;;;;;;;;;;;;;;;;;;;;;;;;;;;;;;;;

;;;;;;;;;;;;;;;;;;;;;;;;;;;;;;;;;;;;;;;;;;;;;;;;;;;;;;;
;   evc7.x compiler version specific section. 
;   comment out the above section and uncomment this section
;   for 7.x compiler if building your own MFC with a 7.x compiler
;   new name is exported at original ordinal.
;   this will ensure that existing apps linked to a 4.x mfc dll will continue to function
;     
;   ??_H@YAXPAXIHP6APAX0@Z@Z @ 1715 NONAME
;   ??_H@YAXPAXIHP6AX0@Z@Z=??_H@YAXPAXIHP6APAX0@Z@Z @ 18 NONAME
;
;   ??$ConstructElements@VCOleVariant@@@@YAXPAVCOleVariant@@H@Z @ 1716 NONAME
;   ?ConstructElements@@YAXPAVCOleVariant@@H@Z=??$ConstructElements@VCOleVariant@@@@YAXPAVCOleVariant@@H@Z @ 547 NONAME
;
;   ??$CopyElements@VCOleVariant@@@@YAXPAVCOleVariant@@PBV0@H@Z @ 1717 NONAME
;   ?CopyElements@@YAXPAVCOleVariant@@PBV1@H@Z=??$CopyElements@VCOleVariant@@@@YAXPAVCOleVariant@@PBV0@H@Z @ 554
;
;   ??$DestructElements@VCOleVariant@@@@YAXPAVCOleVariant@@H@Z @ 1718 NONAME
;   ?DestructElements@@YAXPAVCOleVariant@@H@Z=??$DestructElements@VCOleVariant@@@@YAXPAVCOleVariant@@H@Z @ 656 NONAME
;
;   ??$HashKey@ABUtagVARIANT@@@@YAIABUtagVARIANT@@@Z @ 1719 NONAME
;   ?HashKey@@YAIABUtagVARIANT@@@Z=??$HashKey@ABUtagVARIANT@@@@YAIABUtagVARIANT@@@Z @ 1014 NONAME
;
;   ??$SerializeElements@VCOleVariant@@@@YAXAAVCArchive@@PAVCOleVariant@@H@Z @ 1720 NONAME
;   ?SerializeElements@@YAXAAVCArchive@@PAVCOleVariant@@H@Z=??$SerializeElements@VCOleVariant@@@@YAXAAVCArchive@@PAVCOleVariant@@H@Z @ 1469 NONAME
;;end 7.x compiler specific section
;;;;;;;;;;;;;;;;;;;;;;;;;;;;;;;;;;;;;;;;;;;;;;;;;;;;;;;

	??_I@YAXPAXIHP6AX0@Z@Z @ 19 NONAME
	??0AFX_DDPDATA@@QAA@PAXHH0IPBG@Z @ 20 NONAME
	??0CAfxOleSymbolTable@@QAA@H@Z @ 21 NONAME
	??0CArchivePropExchange@@QAA@AAVCArchive@@@Z @ 22 NONAME
	??0CAsyncPropExchange@@QAA@K@Z @ 23 NONAME
	??0CBlobProperty@@QAA@PAX@Z @ 24 NONAME
	??0CCeFont@@QAA@XZ @ 25 NONAME
	??0CConnectionPoint@@QAA@XZ @ 26 NONAME
	??0CControlDataSource@COleControl@@QAA@PAV1@@Z @ 27 NONAME
	??0CControlFrameWnd@@QAA@PAVCOleControl@@@Z @ 28 NONAME
	??0CEnumArray@@QAA@IPBXIH@Z @ 29 NONAME
	??0CEnumConnections@@QAA@PBXI@Z @ 30 NONAME
	??0CEnumConnPoints@@QAA@PBXI@Z @ 31 NONAME
	??0CFontHolder@@QAA@PAUIPropertyNotifySink@@@Z @ 32 NONAME
	??0COleControl@@QAA@XZ @ 33 NONAME
	??0COleControlContainer@@QAA@PAVCWnd@@@Z @ 34 NONAME
	??0COleControlLock@@QAA@ABU_GUID@@@Z @ 35 NONAME
	??0COleControlSite@@QAA@PAVCOleControlContainer@@@Z @ 36 NONAME
	??0COleCurrency@@QAA@JJ@Z @ 37 NONAME
	??0COleDataSource@@QAA@XZ @ 38 NONAME
	??0COleDispatchDriver@@QAA@ABV0@@Z @ 39 NONAME
	??0COleDispatchDriver@@QAA@PAUIDispatch@@H@Z @ 40 NONAME
	??0COleDispatchDriver@@QAA@XZ @ 41 NONAME
	??0COleDispatchException@@QAA@PBGIG@Z @ 42 NONAME
	??0COleObjectFactory@@QAA@ABU_GUID@@PAUCRuntimeClass@@HPBG@Z @ 43 NONAME
	??0COlePropertyPage@@QAA@II@Z @ 44 NONAME
	??0COleSafeArray@@QAA@ABUtagSAFEARRAY@@G@Z @ 45 NONAME
	??0COleSafeArray@@QAA@ABUtagVARIANT@@@Z @ 46 NONAME
	??0COleSafeArray@@QAA@ABV0@@Z @ 47 NONAME
	??0COleSafeArray@@QAA@PBUtagSAFEARRAY@@G@Z @ 48 NONAME
	??0COleSafeArray@@QAA@PBUtagVARIANT@@@Z @ 49 NONAME
	??0COleStreamFile@@QAA@PAUIStream@@@Z @ 50 NONAME
	??0COleVariant@@QAA@ABUtagVARIANT@@@Z @ 51 NONAME
	??0COleVariant@@QAA@ABV0@@Z @ 52 NONAME
	??0COleVariant@@QAA@FG@Z @ 53 NONAME
	??0COleVariant@@QAA@JG@Z @ 54 NONAME
	??0COleVariant@@QAA@PBGG@Z @ 55 NONAME
	??0COleVariant@@QAA@PBUtagVARIANT@@@Z @ 56 NONAME
	??0CParkingWnd@@QAA@XZ @ 58 NONAME
	??0CPropbagPropExchange@@QAA@PAUIPropertyBag@@PAUIErrorLog@@HH@Z @ 59 NONAME
	??0CProperty@@QAA@KQAXK@Z @ 60 NONAME
	??0CProperty@@QAA@XZ @ 61 NONAME
	??0CPropertySection@@QAA@U_GUID@@@Z @ 62 NONAME
	??0CPropertySection@@QAA@XZ @ 63 NONAME
	??0CPropertySet@@QAA@U_GUID@@@Z @ 64 NONAME
	??0CPropertySet@@QAA@XZ @ 65 NONAME
	??0CPropsetPropExchange@@QAA@AAVCPropertySection@@PAUIStorage@@H@Z @ 66 NONAME
	??0CResetPropExchange@@QAA@XZ @ 67 NONAME
	??0CStreamImp@@QAA@PBGPAV0@PAVCStorageImp@@PAUCRITICAL_SECTION@@PAJPAEH@Z @ 68 NONAME
	??0CUnknown@@QAA@PAUIUnknown@@@Z @ 69 NONAME
	??0CWindowlessDC@@QAA@PAUHDC__@@AAVCPoint@@@Z @ 70 NONAME
	??0OLE_DATA@@QAA@XZ @ 74 NONAME
	??1CAfxOleSymbolTable@@QAA@XZ @ 85 NONAME
	??1CCeFont@@UAA@XZ @ 86 NONAME
	??1CConnectionPoint@@UAA@XZ @ 87 NONAME
	??1CDateTimeCtrl@@UAA@XZ @ 88 NONAME
	??1CEnumArray@@UAA@XZ @ 89 NONAME
	??1CEnumConnections@@UAA@XZ @ 90 NONAME
	??1CEnumConnPoints@@UAA@XZ @ 91 NONAME
	??1CEnumOleVerb@@UAA@XZ @ 92 NONAME
	??1CEnumUnknown@@UAA@XZ @ 93 NONAME
	??1CFontHolder@@QAA@XZ @ 94 NONAME
	??1CMonthCalCtrl@@UAA@XZ @ 95 NONAME
	??1COleControl@@UAA@XZ @ 96 NONAME
	??1COleControlContainer@@UAA@XZ @ 97 NONAME
	??1COleControlLock@@UAA@XZ @ 98 NONAME
	??1COleControlSite@@UAA@XZ @ 99 NONAME
	??1COleDataSource@@UAA@XZ @ 100 NONAME
	??1COleDispatchException@@UAA@XZ @ 102 NONAME
	??1COleObjectFactory@@UAA@XZ @ 103 NONAME
	??1COlePropertyPage@@UAA@XZ @ 104 NONAME
	??1COleStreamFile@@UAA@XZ @ 105 NONAME
	??1CPropbagPropExchange@@QAA@XZ @ 107 NONAME
	??1CProperty@@QAA@XZ @ 108 NONAME
	??1CPropertySection@@QAA@XZ @ 109 NONAME
	??1CPropertySet@@QAA@XZ @ 110 NONAME
	??1CStreamImp@@QAA@XZ @ 111 NONAME
	??1CUnknown@@UAA@XZ @ 112 NONAME
	??4COleCurrency@@QAAABV0@ABUtagVARIANT@@@Z @ 113 NONAME
	??4COleCurrency@@QAAABV0@ABV0@@Z @ 114 NONAME
	??4COleCurrency@@QAAABV0@TtagCY@@@Z @ 115 NONAME
	??4COleDateTime@@QAAABV0@ABK@Z @ 116 NONAME
	??4COleDateTime@@QAAABV0@ABU_FILETIME@@@Z @ 117 NONAME
	??4COleDateTime@@QAAABV0@ABU_SYSTEMTIME@@@Z @ 118 NONAME
	??4COleDateTime@@QAAABV0@ABUtagVARIANT@@@Z @ 119 NONAME
	??4COleDateTime@@QAAABV0@N@Z @ 120 NONAME
	??4COleDateTimeSpan@@QAAABV0@ABV0@@Z @ 121 NONAME
	??4COleDateTimeSpan@@QAAABV0@N@Z @ 122 NONAME
	??4COleDispatchDriver@@QAAABV0@ABV0@@Z @ 123 NONAME
	??4COleSafeArray@@QAAAAV0@ABUtagVARIANT@@@Z @ 124 NONAME
	??4COleSafeArray@@QAAAAV0@ABV0@@Z @ 125 NONAME
	??4COleSafeArray@@QAAAAV0@ABVCOleVariant@@@Z @ 126 NONAME
	??4COleSafeArray@@QAAAAV0@PBUtagVARIANT@@@Z @ 127 NONAME
	??4COleVariant@@QAAABV0@ABUtagVARIANT@@@Z @ 128 NONAME
	??4COleVariant@@QAAABV0@ABV0@@Z @ 129 NONAME
	??4COleVariant@@QAAABV0@ABVCByteArray@@@Z @ 130 NONAME
	??4COleVariant@@QAAABV0@ABVCLongBinary@@@Z @ 131 NONAME
	??4COleVariant@@QAAABV0@ABVCOleCurrency@@@Z @ 132 NONAME
	??4COleVariant@@QAAABV0@ABVCOleDateTime@@@Z @ 133 NONAME
	??4COleVariant@@QAAABV0@ABVCString@@@Z @ 134 NONAME
	??4COleVariant@@QAAABV0@E@Z @ 135 NONAME
	??4COleVariant@@QAAABV0@F@Z @ 136 NONAME
	??4COleVariant@@QAAABV0@J@Z @ 137 NONAME
	??4COleVariant@@QAAABV0@M@Z @ 138 NONAME
	??4COleVariant@@QAAABV0@N@Z @ 139 NONAME
	??4COleVariant@@QAAABV0@PBUtagVARIANT@@@Z @ 140 NONAME
	??4COleVariant@@QAAABV0@QBG@Z @ 141 NONAME
	??5@YAAAVCArchive@@AAV0@AAVCOleCurrency@@@Z @ 142 NONAME
	??5@YAAAVCArchive@@AAV0@AAVCOleDateTime@@@Z @ 143 NONAME
	??5@YAAAVCArchive@@AAV0@AAVCOleDateTimeSpan@@@Z @ 144 NONAME
	??5@YAAAVCArchive@@AAV0@AAVCOleVariant@@@Z @ 145 NONAME
	??5CArchive@@QAAAAV0@AAE@Z @ 1653 NONAME
	??5CArchive@@QAAAAV0@AAG@Z @ 1654 NONAME
	??5CArchive@@QAAAAV0@AAJ@Z @ 1655 NONAME
	??5CArchive@@QAAAAV0@AAK@Z @ 1656 NONAME
	??5CArchive@@QAAAAV0@AAM@Z @ 1657 NONAME
	??5CArchive@@QAAAAV0@AAN@Z @ 1658 NONAME
	??6@YAAAVCArchive@@AAV0@VCOleCurrency@@@Z @ 148 NONAME
	??6@YAAAVCArchive@@AAV0@VCOleDateTime@@@Z @ 149 NONAME
	??6@YAAAVCArchive@@AAV0@VCOleDateTimeSpan@@@Z @ 150 NONAME
	??6@YAAAVCArchive@@AAV0@VCOleVariant@@@Z @ 151 NONAME
	??6CArchive@@QAAAAV0@E@Z @ 1659 NONAME
	??6CArchive@@QAAAAV0@G@Z @ 1660 NONAME
	??6CArchive@@QAAAAV0@J@Z @ 1661 NONAME
	??6CArchive@@QAAAAV0@K@Z @ 1662 NONAME
	??6CArchive@@QAAAAV0@M@Z @ 1663 NONAME
	??6CArchive@@QAAAAV0@N@Z @ 1664 NONAME
	??8COleSafeArray@@QBAHABUtagSAFEARRAY@@@Z @ 152 NONAME
	??8COleSafeArray@@QBAHABUtagVARIANT@@@Z @ 153 NONAME
	??8COleSafeArray@@QBAHABV0@@Z @ 154 NONAME
	??8COleSafeArray@@QBAHABVCOleVariant@@@Z @ 155 NONAME
	??8COleSafeArray@@QBAHPBUtagSAFEARRAY@@@Z @ 156 NONAME
	??8COleSafeArray@@QBAHPBUtagVARIANT@@@Z @ 157 NONAME
	??8COleVariant@@QBAHABUtagVARIANT@@@Z @ 158 NONAME
	??DCOleCurrency@@QBA?AV0@J@Z @ 159 NONAME
	??GCOleCurrency@@QBA?AV0@ABV0@@Z @ 160 NONAME
	??GCOleCurrency@@QBA?AV0@XZ @ 161 NONAME
	??GCOleDateTime@@QBA?AV0@ABVCOleDateTimeSpan@@@Z @ 162 NONAME
	??GCOleDateTime@@QBA?AVCOleDateTimeSpan@@ABV0@@Z @ 163 NONAME
	??GCOleDateTimeSpan@@QBA?AV0@ABV0@@Z @ 164 NONAME
	??HCOleCurrency@@QBA?AV0@ABV0@@Z @ 165 NONAME
	??HCOleDateTime@@QBA?AV0@ABVCOleDateTimeSpan@@@Z @ 166 NONAME
	??HCOleDateTimeSpan@@QBA?AV0@ABV0@@Z @ 167 NONAME
	??KCOleCurrency@@QBA?AV0@J@Z @ 168 NONAME
	??MCOleCurrency@@QBAHABV0@@Z @ 169 NONAME
	??MCOleDateTime@@QBAHABV0@@Z @ 170 NONAME
	??MCTime@@QBAHV0@@Z @ 1690 NONAME
	??NCOleCurrency@@QBAHABV0@@Z @ 171 NONAME
	??NCOleDateTime@@QBAHABV0@@Z @ 172 NONAME
	??OCOleCurrency@@QBAHABV0@@Z @ 173 NONAME
	??OCOleDateTime@@QBAHABV0@@Z @ 174 NONAME
	??OCTime@@QBAHV0@@Z @ 1691 NONAME
	??PCOleCurrency@@QBAHABV0@@Z @ 175 NONAME
	??PCOleDateTime@@QBAHABV0@@Z @ 176 NONAME
	?_AfxAtEndOfTabList@@YAHPAVCDialog@@I@Z @ 177 NONAME
	?_AfxCheckDefPushButton@@YAXPAVCWnd@@00@Z @ 178 NONAME
	?_AfxCleanupDDPs@@YAXAAVCPtrArray@@@Z @ 179 NONAME
	?_AfxCoCreateInstanceLic@@YAJABU_GUID@@PAUIUnknown@@K0PAPAXPAG@Z @ 180 NONAME
	?_AfxCoerceNumber@@YAHPAXG0G@Z @ 181 NONAME
	?_AfxCompareSafeArrays@@YAHPAUtagSAFEARRAY@@0@Z @ 182 NONAME
	?_AfxConvertStringProp@@YAPAEPAEKKI@Z @ 183 NONAME
	?_AfxCopyBinaryData@@YAXPAUtagSAFEARRAY@@PBXK@Z @ 184 NONAME
	?_AfxCopyBlob@@YAHPAPAXPAX@Z @ 185 NONAME
	?_AfxCopyGlobalMemory@@YAPAXPAX0@Z @ 186 NONAME
	?_AfxCopyPropValue@@YAHGPAXPBX@Z @ 187 NONAME
	?_AfxCopyStgMedium@@YAHGPAUtagSTGMEDIUM@@0@Z @ 188 NONAME
	?_AfxCopyString@@YAPAGPBG@Z @ 1665 NONAME
	?_AfxCountPrefixedStringA@@YAPAXPBD@Z @ 189 NONAME
	?_AfxCountPrefixedStringW@@YAPAXPBG@Z @ 190 NONAME
	?_AfxCreateFontFromStream@@YAPAUIFont@@PAUIStream@@@Z @ 191 NONAME
	?_AfxCreateMemoryStream@@YAPAUIStream@@XZ @ 192 NONAME
	?_AfxCreateObjectFromStreamedPropset@@YAPAUIUnknown@@PAUIStream@@ABU_GUID@@@Z @ 193 NONAME
	?_AfxCreateOneDimArray@@YAXAAUtagVARIANT@@K@Z @ 194 NONAME
	?_AfxDateFromDouble@@YANN@Z @ 195 NONAME
	?_AfxDlgSetFocus@@YAXPAVCWnd@@@Z @ 196 NONAME
	?_AfxDoubleFromDate@@YANN@Z @ 197 NONAME
	?_AfxDrawBorders@@YAXPAVCDC@@AAVCRect@@HH@Z @ 198 NONAME
	?_AfxFillFormatEtc@@YAPAUtagFORMATETC@@PAU1@G0@Z @ 199 NONAME
	?_AfxFillOleFileException@@YAXPAVCFileException@@J@Z @ 200 NONAME
	?_AfxFillPSOnStack@@YAXXZ @ 201 NONAME
	?_AfxFindDlgItem@@YAPAVCWnd@@PAV1@K@Z @ 202 NONAME
	?_AfxFindFirstDlgItem@@YAPAUDLGITEMTEMPLATE@@PBUDLGTEMPLATE@@@Z @ 203 NONAME
	?_AfxFindNextDlgItem@@YAPAUDLGITEMTEMPLATE@@PAU1@H@Z @ 204 NONAME
	?_AfxFindNextMnem@@YAPAVCWnd@@PAV1@0PAUtagMSG@@@Z @ 205 NONAME
	?_AfxGetArchiveStream@@YAPAUIStream@@AAVCArchive@@AAVCArchiveStream@@@Z @ 206 NONAME
	?_AfxGetChildControl@@YAPAVCWnd@@PAV1@0@Z @ 207 NONAME
	?_AfxGetClassIDFromStreamedPropset@@YAHPAU_GUID@@PAUIStream@@@Z @ 208 NONAME
	?_AfxGetClipboardFormatConvertVBX@@YAGXZ @ 209 NONAME
	?_AfxGetClipboardFormatPersistPropset@@YAGXZ @ 210 NONAME
	?_AfxGetDlgCode@@YAKPAVCWnd@@PAUtagMSG@@@Z @ 211 NONAME
	?_AfxGetNextMnem@@YAPAVCWnd@@PAV1@0PAUtagMSG@@@Z @ 212 NONAME
	?_AfxGetOleModuleState@@YAPAVAFX_MODULE_STATE@@XZ @ 213 NONAME
	?_AfxGetParkingWindow@@YAPAUHWND__@@XZ @ 214 NONAME
	?_AfxGetSizeOfVarType@@YAIG@Z @ 215 NONAME
	?_AfxGetTopLevelWindow@@YAPAUHWND__@@PAU1@@Z @ 216 NONAME
	?_AfxInitBlob@@YAHPAPAXPAX@Z @ 217 NONAME
	?_AfxInitStreamDataFromBlobProp@@YAHPAUIStream@@PAVCProperty@@@Z @ 218 NONAME
	?_AfxIsRadioButton@@YAHPAUHWND__@@@Z @ 219 NONAME
	?_AfxIsSameFont@@YAHAAVCFontHolder@@PBUtagFONTDESC@@PAUIFontDisp@@@Z @ 220 NONAME
	?_AfxIsSamePropValue@@YAHGPBX0@Z @ 221 NONAME
	?_AfxIsSameUnknownObject@@YAHABU_GUID@@PAUIUnknown@@1@Z @ 222 NONAME
	?_AfxLoadObjectFromStreamedPropset@@YAHPAUIUnknown@@PAUIStream@@@Z @ 223 NONAME
	?_AfxLoadStreamFromPropset@@YAPAUIStream@@AAVCPropertySection@@PBGAAK@Z @ 224 NONAME
	?_AfxNextControl@@YAPAVCWnd@@PAV1@0I@Z @ 225 NONAME
	?_AfxOffsetTrackerRect@@YAXAAVCRect@@PAVCWnd@@@Z @ 226 NONAME
	?_AfxOleDateFromTm@@YAHGGGGGGAAN@Z @ 227 NONAME
	?_AfxOleGetObjectDescriptorData@@YAPAXPAUIOleObject@@PBGKU_POINTL@@PAUtagSIZE@@@Z @ 228 NONAME
	?_AfxOleGetObjectDescriptorData@@YAPAXU_GUID@@KUtagSIZE@@U_POINTL@@KPBG3@Z @ 229 NONAME
	?_AfxOleMakeSymbolTable@@YAHAAVCAfxOleSymbolTable@@ABU_GUID@@PBG22H22@Z @ 230 NONAME
	?_AfxOleMatchPropsetClipFormat@@YAHGPAU_GUID@@@Z @ 231 NONAME
	?_AfxOriginalDefButton@@YAHPAVCWnd@@@Z @ 232 NONAME
	?_AfxParseOption@@YAHPAGPBG@Z @ 233 NONAME
	?_AfxPeekAtClassIDInStream@@YAHPAUIStream@@PAU_GUID@@@Z @ 234 NONAME
	?_AfxPostTrailByte@@YAXPAVCWnd@@E@Z @ 235 NONAME
	?_AfxQueryInterface@@YAPAUIUnknown@@PAU1@ABU_GUID@@@Z @ 236 NONAME
	?_AfxReadFromStream@@YAJPAUIStream@@PAXIAAK@Z @ 237 NONAME
	?_AfxRecursiveRegDeleteKey@@YAJPAUHKEY__@@PAG@Z @ 238 NONAME
	?_AfxRegisterClipFormat@@YAGABU_GUID@@@Z @ 239 NONAME
	?_AfxRelease@@YAKPAPAUIUnknown@@@Z @ 240 NONAME
	?_AfxReleaseParkingWindow@@YAXXZ @ 241 NONAME
	?_AfxRemoveDefaultButton@@YAXPAVCWnd@@0@Z @ 242 NONAME
	?_AfxSaveObjectInPropset@@YAHPAUIUnknown@@AAVCPropertySection@@K@Z @ 243 NONAME
	?_AfxSaveStreamDataAsBlobProp@@YAHPAUIStream@@AAVCPropertySection@@KK@Z @ 244 NONAME
	?_AfxShiftState@@YAFXZ @ 245 NONAME
	?_AfxThrowOleFileException@@YAXJ@Z @ 246 NONAME
	?_AfxTmConvertToStandardFormat@@YAXAAUtm@@@Z @ 247 NONAME
	?_AfxTmFromOleDate@@YAHNAAUtm@@@Z @ 248 NONAME
	?_AfxToggleAppearance@@YAXPAVCWnd@@@Z @ 249 NONAME
	?_AfxToggleBorderStyle@@YAXPAVCWnd@@@Z @ 250 NONAME
	?_AfxUnregisterInterfaces@@YAXPAUITypeLib@@@Z @ 251 NONAME
	?_AfxWriteNameDictEntry@@YAHPAUIStream@@KAAVCString@@@Z @ 252 NONAME
	?_AfxXformSizeInHimetricToPixels@@YAXPAUHDC__@@PAUtagSIZE@@1@Z @ 253 NONAME
	?_AfxXformSizeInPixelsToHimetric@@YAXPAUHDC__@@PAUtagSIZE@@1@Z @ 254 NONAME
	?_ClearCompat@COleVariant@@QAAXXZ @ 255 NONAME
	?_GetBaseClass@CDateTimeCtrl@@KAPAUCRuntimeClass@@XZ @ 256 NONAME
	?_GetBaseClass@CMonthCalCtrl@@KAPAUCRuntimeClass@@XZ @ 257 NONAME
	?_GetBaseClass@COleControl@@KAPAUCRuntimeClass@@XZ @ 258 NONAME
	?_GetBaseClass@COleControlModule@@KAPAUCRuntimeClass@@XZ @ 259 NONAME
	?_GetBaseClass@COleDispatchException@@KAPAUCRuntimeClass@@XZ @ 260 NONAME
	?_GetBaseClass@COleException@@KAPAUCRuntimeClass@@XZ @ 261 NONAME
	?_GetBaseClass@COleObjectFactory@@KAPAUCRuntimeClass@@XZ @ 262 NONAME
	?_GetBaseClass@COlePropertyPage@@KAPAUCRuntimeClass@@XZ @ 263 NONAME
	?_GetBaseClass@COleStreamFile@@KAPAUCRuntimeClass@@XZ @ 264 NONAME
	?_GetBaseClass@CWindowlessDC@@KAPAUCRuntimeClass@@XZ @ 265 NONAME
	?_GetBaseConnectionMap@COleControl@@KAPBUAFX_CONNECTIONMAP@@XZ @ 266 NONAME
	?_GetBaseDispatchMap@COleControlContainer@@KAPBUAFX_DISPMAP@@XZ @ 267 NONAME
	?_GetBaseInterfaceMap@CEnumConnections@@KAPBUAFX_INTERFACEMAP@@XZ @ 268 NONAME
	?_GetBaseInterfaceMap@CEnumConnPoints@@KAPBUAFX_INTERFACEMAP@@XZ @ 269 NONAME
	?_GetBaseInterfaceMap@CEnumOleVerb@@KAPBUAFX_INTERFACEMAP@@XZ @ 270 NONAME
	?_GetBaseInterfaceMap@CEnumUnknown@@KAPBUAFX_INTERFACEMAP@@XZ @ 271 NONAME
	?_GetBaseInterfaceMap@COleControl@@KAPBUAFX_INTERFACEMAP@@XZ @ 272 NONAME
	?_GetBaseInterfaceMap@COleControlContainer@@KAPBUAFX_INTERFACEMAP@@XZ @ 273 NONAME
	?_GetBaseInterfaceMap@COleControlSite@@KAPBUAFX_INTERFACEMAP@@XZ @ 274 NONAME
	?_GetBaseInterfaceMap@COleDataSource@@KAPBUAFX_INTERFACEMAP@@XZ @ 275 NONAME
	?_GetBaseInterfaceMap@COleObjectFactory@@KAPBUAFX_INTERFACEMAP@@XZ @ 276 NONAME
	?_GetBaseInterfaceMap@COlePropertyPage@@KAPBUAFX_INTERFACEMAP@@XZ @ 277 NONAME
	?_GetBaseMessageMap@CControlFrameWnd@@KAPBUAFX_MSGMAP@@XZ @ 278 NONAME
	?_GetBaseMessageMap@COleControl@@KAPBUAFX_MSGMAP@@XZ @ 279 NONAME
	?_GetBaseMessageMap@COlePropertyPage@@KAPBUAFX_MSGMAP@@XZ @ 280 NONAME
	?_GetClippingCoordinates@@YAXPBUtagRECT@@0PAU1@PAUtagPOINT@@@Z @ 281 NONAME
	?_GetI4Property@@YAHPAUIDispatch@@JPAK@Z @ 282 NONAME
	?Abort@COleStreamFile@@UAAXXZ @ 283 NONAME
	?AccessData@COleSafeArray@@QAAXPAPAX@Z @ 284 NONAME
	?Activate@XPropertyPage@COlePropertyPage@@UAAJPAUHWND__@@PBUtagRECT@@H@Z @ 285 NONAME
	?AddConnection@CEnumConnections@@QAAXPAUtagCONNECTDATA@@@Z @ 286 NONAME
	?AddConnPoint@CEnumConnPoints@@QAAXPAUIConnectionPoint@@@Z @ 287 NONAME
	?AddProperty@CPropertySection@@QAAXPAVCProperty@@@Z @ 288 NONAME
	?AddProperty@CPropertySet@@QAAXU_GUID@@PAVCProperty@@@Z @ 289 NONAME
	?AddRef@CBlobProperty@@UAAKXZ @ 290 NONAME
	?AddRef@CCeFont@@UAAKXZ @ 291 NONAME
	?AddRef@CCeFont@@W3AAKXZ @ 292 NONAME
	?AddRef@CCeFont@@W7AAKXZ @ 293 NONAME
	?AddRef@CCeFont@@WBA@AAKXZ @ 294 NONAME
	?AddRef@CCeFont@@WM@AAKXZ @ 295 NONAME
	?AddRef@CInnerUnknown@@UAAKXZ @ 296 NONAME
	?AddRef@COleConnPtContainer@@UAAKXZ @ 297 NONAME
	?AddRef@COleDispatchImpl@@UAAKXZ @ 298 NONAME
	?AddRef@CStreamImp@@UAAKXZ @ 299 NONAME
	?AddRef@XAmbientProps@COleControlSite@@UAAKXZ @ 300 NONAME
	?AddRef@XClassFactory@COleObjectFactory@@UAAKXZ @ 301 NONAME
	?AddRef@XConnPt@CConnectionPoint@@UAAKXZ @ 302 NONAME
	?AddRef@XDataObject@COleDataSource@@UAAKXZ @ 303 NONAME
	?AddRef@XEnumVOID@CEnumArray@@UAAKXZ @ 304 NONAME
	?AddRef@XEventSink@COleControlSite@@UAAKXZ @ 305 NONAME
	?AddRef@XFontNotification@COleControl@@UAAKXZ @ 306 NONAME
	?AddRef@XOleClientSite@COleControlSite@@UAAKXZ @ 307 NONAME
	?AddRef@XOleContainer@COleControlContainer@@UAAKXZ @ 308 NONAME
	?AddRef@XOleControl@COleControl@@UAAKXZ @ 309 NONAME
	?AddRef@XOleControlSite@COleControlSite@@UAAKXZ @ 310 NONAME
	?AddRef@XOleInPlaceActiveObject@COleControl@@UAAKXZ @ 311 NONAME
	?AddRef@XOleInPlaceObject@COleControl@@UAAKXZ @ 312 NONAME
	?AddRef@XOleIPFrame@COleControlContainer@@UAAKXZ @ 313 NONAME
	?AddRef@XOleIPSite@COleControlSite@@UAAKXZ @ 314 NONAME
	?AddRef@XOleObject@COleControl@@UAAKXZ @ 315 NONAME
	?AddRef@XPerPropertyBrowsing@COleControl@@UAAKXZ @ 316 NONAME
	?AddRef@XPersistMemory@COleControl@@UAAKXZ @ 317 NONAME
	?AddRef@XPersistPropertyBag@COleControl@@UAAKXZ @ 318 NONAME
	?AddRef@XPersistStorage@COleControl@@UAAKXZ @ 319 NONAME
	?AddRef@XPersistStreamInit@COleControl@@UAAKXZ @ 320 NONAME
	?AddRef@XPointerInactive@COleControl@@UAAKXZ @ 321 NONAME
	?AddRef@XPropertyNotifySink@COleControlSite@@UAAKXZ @ 322 NONAME
	?AddRef@XPropertyPage@COlePropertyPage@@UAAKXZ @ 323 NONAME
	?AddRef@XPropNotifySink@COlePropertyPage@@UAAKXZ @ 324 NONAME
	?AddRef@XProvideClassInfo@COleControl@@UAAKXZ @ 325 NONAME
	?AddRef@XQuickActivate@COleControl@@UAAKXZ @ 326 NONAME
	?AddRef@XSpecifyPropertyPages@COleControl@@UAAKXZ @ 327 NONAME
	?AddRef@XViewObject@COleControl@@UAAKXZ @ 328 NONAME
	?AddRefHfont@CCeFont@@UAAJPAUHFONT__@@@Z @ 329 NONAME
	?AddSection@CPropertySet@@QAAPAVCPropertySection@@U_GUID@@@Z @ 330 NONAME
	?AddSection@CPropertySet@@QAAXPAVCPropertySection@@@Z @ 331 NONAME
	?Advise@XConnPt@CConnectionPoint@@UAAJPAUIUnknown@@PAK@Z @ 332 NONAME
	?Advise@XOleObject@COleControl@@UAAJPAUIAdviseSink@@PAK@Z @ 333 NONAME
	?AfxAllocTaskAnsiString@@YAPADPBD@Z @ 334 NONAME
	?AfxAllocTaskAnsiString@@YAPADPBG@Z @ 335 NONAME
	?AfxAllocTaskWideString@@YAPAGPBD@Z @ 336 NONAME
	?AfxAllocTaskWideString@@YAPAGPBG@Z @ 337 NONAME
	?AfxBSTR2CString@@YAXPAVCString@@PAG@Z @ 338 NONAME
	?AfxCheckError@@YAXJ@Z @ 339 NONAME
	?AfxConnectionAdvise@@YAHPAUIUnknown@@ABU_GUID@@0HPAK@Z @ 340 NONAME
	?AfxConnectionUnadvise@@YAHPAUIUnknown@@ABU_GUID@@0HK@Z @ 341 NONAME
	?AfxDllCanUnloadNow@@YAJXZ @ 342 NONAME
	?AfxDllGetClassObject@@YAJABU_GUID@@0PAPAX@Z @ 343 NONAME
	?AfxEnableControlContainer@@YAXPAVCOccManager@@@Z @ 344 NONAME
	?AfxGetClassIDFromString@@YAJPBGPAU_GUID@@@Z @ 345 NONAME
	?AfxGetTypeLibCache@@YAPAVCTypeLibCache@@PBU_GUID@@@Z @ 346 NONAME
	?AfxMergeMenus@@YAPAUHMENU__@@PAU1@0PAJHH@Z @ 347 NONAME
	?AfxOleInit@@YAHXZ @ 348 NONAME
	?AfxOleInitModule@@YAXXZ @ 349 NONAME
	?AfxOleLockControl@@YAHABU_GUID@@@Z @ 350 NONAME
	?AfxOleLockControl@@YAHPBG@Z @ 351 NONAME
	?AfxOleRegisterControlClass@@YAHPAUHINSTANCE__@@ABU_GUID@@PBGIIHK1GG@Z @ 352 NONAME
	?AfxOleRegisterHelper@@YAHPBQBG0HHPAUHKEY__@@@Z @ 353 NONAME
	?AfxOleRegisterPropertyPageClass@@YAHPAUHINSTANCE__@@ABU_GUID@@I@Z @ 354 NONAME
	?AfxOleRegisterPropertyPageClass@@YAHPAUHINSTANCE__@@ABU_GUID@@IH@Z @ 355 NONAME
	?AfxOleRegisterServerClass@@YAHABU_GUID@@PBG11W4OLE_APPTYPE@@PAPBG3H1@Z @ 356 NONAME
	?AfxOleRegisterServerClass@@YAHABU_GUID@@PBG11W4OLE_APPTYPE@@PAPBG3H11@Z @ 357 NONAME
	?AfxOleRegisterServerClassCompat@@YAHABU_GUID@@PBG11W4OLE_APPTYPE@@PAPBG3@Z @ 358 NONAME
	?AfxOleRegisterTypeLib@@YAHPAUHINSTANCE__@@ABU_GUID@@PBG2@Z @ 359 NONAME
	?AfxOleTerm@@YAXH@Z @ 360 NONAME
	?AfxOleTermOrFreeLib@@YAXHH@Z @ 361 NONAME
	?AfxOleUnlockAllControls@@YAXXZ @ 362 NONAME
	?AfxOleUnlockControl@@YAHABU_GUID@@@Z @ 363 NONAME
	?AfxOleUnlockControl@@YAHPBG@Z @ 364 NONAME
	?AfxOleUnregisterClass@@YAHABU_GUID@@PBG@Z @ 365 NONAME
	?AfxOleUnregisterHelper@@YAHPBQBG0HPAUHKEY__@@@Z @ 366 NONAME
	?AfxOleUnregisterServerClass@@YAHABU_GUID@@PBG11W4OLE_APPTYPE@@PAPBG3@Z @ 367 NONAME
	?AfxOleUnregisterTypeLib@@YAHABU_GUID@@GGK@Z @ 368 NONAME
	?AfxSafeArrayInit@@YAXPAVCOleSafeArray@@@Z @ 369 NONAME
	?AfxThrowOleDispatchException@@YAXGII@Z @ 370 NONAME
	?AfxThrowOleDispatchException@@YAXGPBGI@Z @ 371 NONAME
	?AfxThrowOleException@@YAXJ@Z @ 372 NONAME
	?AfxThunkCLSIDFromProgID@@YAJPBGPAU_GUID@@@Z @ 373 NONAME
	?AfxThunkCLSIDFromString@@YAJPAGPAU_GUID@@@Z @ 374 NONAME
	?AfxThunkCoCreateInstance@@YAJABU_GUID@@PAPAUIUnknown@@K0PAPAX@Z @ 375 NONAME
	?AfxThunkCoDisconnectObject@@YAJPAUIUnknown@@K@Z @ 376 NONAME
	?AfxThunkCoFreeUnusedLibraries@@YAXXZ @ 377 NONAME
	?AfxThunkCoGetClassObject@@YAJABU_GUID@@KPAX0PAPAX@Z @ 378 NONAME
	?AfxThunkCoGetMalloc@@YAJKPAPAUIMalloc@@@Z @ 379 NONAME
	?AfxThunkCoInitialize@@YAJPAX@Z @ 380 NONAME
	?AfxThunkCoInitializeEx@@YAJPAXK@Z @ 381 NONAME
	?AfxThunkCoLockObjectExternal@@YAJPAUIUnknown@@HH@Z @ 382 NONAME
	?AfxThunkCoRegisterClassObject@@YAJABU_GUID@@PAUIUnknown@@KKPAK@Z @ 383 NONAME
	?AfxThunkCoRegisterMessageFilter@@YAJPAUIMessageFilter@@PAPAU1@@Z @ 384 NONAME
	?AfxThunkCoRevokeClassObject@@YAJK@Z @ 385 NONAME
	?AfxThunkCoTaskMemAlloc@@YAPAXK@Z @ 386 NONAME
	?AfxThunkCoTaskMemFree@@YAXPAX@Z @ 387 NONAME
	?AfxThunkCoTaskMemRealloc@@YAPAXPAXK@Z @ 388 NONAME
	?AfxThunkCoTreatAsClass@@YAJABU_GUID@@0@Z @ 389 NONAME
	?AfxThunkCoUninitialize@@YAXXZ @ 390 NONAME
	?AfxThunkCreateBindCtx@@YAJKPAPAUIBindCtx@@@Z @ 391 NONAME
	?AfxThunkCreateDataAdviseHolder@@YAJPAPAUIDataAdviseHolder@@@Z @ 392 NONAME
	?AfxThunkCreateFileMoniker@@YAJPBGPAPAUIMoniker@@@Z @ 393 NONAME
	?AfxThunkCreateGenericComposite@@YAJPAUIMoniker@@0PAPAU1@@Z @ 394 NONAME
	?AfxThunkCreateILockBytesOnHGlobal@@YAJPAXHPAPAUILockBytes@@@Z @ 395 NONAME
	?AfxThunkCreateItemMoniker@@YAJPBG0PAPAUIMoniker@@@Z @ 396 NONAME
	?AfxThunkCreateOleAdviseHolder@@YAJPAPAUIOleAdviseHolder@@@Z @ 397 NONAME
	?AfxThunkCreateStreamOnHGlobal@@YAJPAXHPAPAUIStream@@@Z @ 398 NONAME
	?AfxThunkDoDragDrop@@YAJPAUIDataObject@@PAUIDropSource@@KPAK@Z @ 399 NONAME
	?AfxThunkDosDateTimeToVariantTime@@YAHGGPAN@Z @ 400 NONAME
	?AfxThunkGetHGlobalFromILockBytes@@YAJPAUILockBytes@@PAPAX@Z @ 401 NONAME
	?AfxThunkGetRunningObjectTable@@YAJKPAPAUIRunningObjectTable@@@Z @ 402 NONAME
	?AfxThunkIsAccelerator@@YAHPAUHACCEL__@@HPAUtagMSG@@PAG@Z @ 403 NONAME
	?AfxThunkLoadRegTypeLib@@YAJABU_GUID@@GGKPAPAUITypeLib@@@Z @ 404 NONAME
	?AfxThunkLoadTypeLib@@YAJPBGPAPAUITypeLib@@@Z @ 405 NONAME
	?AfxThunkOleCreate@@YAJABU_GUID@@0KPAUtagFORMATETC@@PAUIOleClientSite@@PAUIStorage@@PAPAX@Z @ 406 NONAME
	?AfxThunkOleCreateDefaultHandler@@YAJABU_GUID@@PAUIUnknown@@0PAPAX@Z @ 407 NONAME
	?AfxThunkOleCreateFromData@@YAJPAUIDataObject@@ABU_GUID@@KPAUtagFORMATETC@@PAUIOleClientSite@@PAUIStorage@@PAPAX@Z @ 408 NONAME
	?AfxThunkOleCreateFromFile@@YAJABU_GUID@@PBG0KPAUtagFORMATETC@@PAUIOleClientSite@@PAUIStorage@@PAPAX@Z @ 409 NONAME
	?AfxThunkOleCreateLinkFromData@@YAJPAUIDataObject@@ABU_GUID@@KPAUtagFORMATETC@@PAUIOleClientSite@@PAUIStorage@@PAPAX@Z @ 410 NONAME
	?AfxThunkOleCreateLinkToFile@@YAJPBGABU_GUID@@KPAUtagFORMATETC@@PAUIOleClientSite@@PAUIStorage@@PAPAX@Z @ 411 NONAME
	?AfxThunkOleCreateMenuDescriptor@@YAPAXPAUHMENU__@@PAUtagOleMenuGroupWidths@@@Z @ 412 NONAME
	?AfxThunkOleCreateStaticFromData@@YAJPAUIDataObject@@ABU_GUID@@KPAUtagFORMATETC@@PAUIOleClientSite@@PAUIStorage@@PAPAX@Z @ 413 NONAME
	?AfxThunkOleDestroyMenuDescriptor@@YAJPAX@Z @ 414 NONAME
	?AfxThunkOleDuplicateData@@YAPAXPAXGI@Z @ 415 NONAME
	?AfxThunkOleFlushClipboard@@YAJXZ @ 416 NONAME
	?AfxThunkOleGetAutoConvert@@YAJABU_GUID@@PAU1@@Z @ 417 NONAME
	?AfxThunkOleGetClipboard@@YAJPAPAUIDataObject@@@Z @ 418 NONAME
	?AfxThunkOleGetIconOfClass@@YAPAXABU_GUID@@PAGH@Z @ 419 NONAME
	?AfxThunkOleIsCurrentClipboard@@YAJPAUIDataObject@@@Z @ 420 NONAME
	?AfxThunkOleIsRunning@@YAHPAUIOleObject@@@Z @ 421 NONAME
	?AfxThunkOleLoad@@YAJPAUIStorage@@ABU_GUID@@PAUIOleClientSite@@PAPAX@Z @ 422 NONAME
	?AfxThunkOleLoadFromStream@@YAJPAUIStream@@ABU_GUID@@PAPAX@Z @ 423 NONAME
	?AfxThunkOleLockRunning@@YAJPAUIUnknown@@HH@Z @ 424 NONAME
	?AfxThunkOleQueryCreateFromData@@YAJPAUIDataObject@@@Z @ 425 NONAME
	?AfxThunkOleQueryLinkFromData@@YAJPAUIDataObject@@@Z @ 426 NONAME
	?AfxThunkOleRegEnumVerbs@@YAJABU_GUID@@PAPAUIEnumOLEVERB@@@Z @ 427 NONAME
	?AfxThunkOleRegGetMiscStatus@@YAJABU_GUID@@KPAK@Z @ 428 NONAME
	?AfxThunkOleRegGetUserType@@YAJABU_GUID@@KPAPAG@Z @ 429 NONAME
	?AfxThunkOleRun@@YAJPAUIUnknown@@@Z @ 430 NONAME
	?AfxThunkOleSave@@YAJPAUIPersistStorage@@PAUIStorage@@H@Z @ 431 NONAME
	?AfxThunkOleSaveToStream@@YAJPAUIPersistStream@@PAUIStream@@@Z @ 432 NONAME
	?AfxThunkOleSetClipboard@@YAJPAUIDataObject@@@Z @ 433 NONAME
	?AfxThunkOleSetContainedObject@@YAJPAUIUnknown@@H@Z @ 434 NONAME
	?AfxThunkOleSetMenuDescriptor@@YAJPAXPAUHWND__@@1PAUIOleInPlaceFrame@@PAUIOleInPlaceActiveObject@@@Z @ 435 NONAME
	?AfxThunkOleTranslateAccelerator@@YAJPAUIOleInPlaceFrame@@PAUtagOIFI@@PAUtagMSG@@@Z @ 436 NONAME
	?AfxThunkOleUninitialize@@YAXXZ @ 437 NONAME
	?AfxThunkReadClassStg@@YAJPAUIStorage@@PAU_GUID@@@Z @ 438 NONAME
	?AfxThunkReadClassStm@@YAJPAUIStream@@PAU_GUID@@@Z @ 439 NONAME
	?AfxThunkReadFmtUserTypeStg@@YAJPAUIStorage@@PAGPAPAG@Z @ 440 NONAME
	?AfxThunkRegisterDragDrop@@YAJPAUHWND__@@PAUIDropTarget@@@Z @ 441 NONAME
	?AfxThunkRegisterTypeLib@@YAJPAUITypeLib@@PAG1@Z @ 442 NONAME
	?AfxThunkReleaseStgMedium@@YAXPAUtagSTGMEDIUM@@@Z @ 443 NONAME
	?AfxThunkRevokeDragDrop@@YAJPAUHWND__@@@Z @ 444 NONAME
	?AfxThunkSafeArrayAccessData@@YAJPAUtagSAFEARRAY@@PAPAX@Z @ 445 NONAME
	?AfxThunkSafeArrayAllocData@@YAJPAUtagSAFEARRAY@@@Z @ 446 NONAME
	?AfxThunkSafeArrayAllocDescriptor@@YAJIPAPAUtagSAFEARRAY@@@Z @ 447 NONAME
	?AfxThunkSafeArrayCopy@@YAJPAUtagSAFEARRAY@@PAPAU1@@Z @ 448 NONAME
	?AfxThunkSafeArrayCreate@@YAPAUtagSAFEARRAY@@GIPAUtagSAFEARRAYBOUND@@@Z @ 449 NONAME
	?AfxThunkSafeArrayDestroy@@YAJPAUtagSAFEARRAY@@@Z @ 450 NONAME
	?AfxThunkSafeArrayDestroyData@@YAJPAUtagSAFEARRAY@@@Z @ 451 NONAME
	?AfxThunkSafeArrayDestroyDescriptor@@YAJPAUtagSAFEARRAY@@@Z @ 452 NONAME
	?AfxThunkSafeArrayGetDim@@YAIPAUtagSAFEARRAY@@@Z @ 453 NONAME
	?AfxThunkSafeArrayGetElement@@YAJPAUtagSAFEARRAY@@PAJPAX@Z @ 454 NONAME
	?AfxThunkSafeArrayGetElemsize@@YAIPAUtagSAFEARRAY@@@Z @ 455 NONAME
	?AfxThunkSafeArrayGetLBound@@YAJPAUtagSAFEARRAY@@IPAJ@Z @ 456 NONAME
	?AfxThunkSafeArrayGetUBound@@YAJPAUtagSAFEARRAY@@IPAJ@Z @ 457 NONAME
	?AfxThunkSafeArrayLock@@YAJPAUtagSAFEARRAY@@@Z @ 458 NONAME
	?AfxThunkSafeArrayPtrOfIndex@@YAJPAUtagSAFEARRAY@@PAJPAPAX@Z @ 459 NONAME
	?AfxThunkSafeArrayPutElement@@YAJPAUtagSAFEARRAY@@PAJPAX@Z @ 460 NONAME
	?AfxThunkSafeArrayRedim@@YAJPAUtagSAFEARRAY@@PAUtagSAFEARRAYBOUND@@@Z @ 461 NONAME
	?AfxThunkSafeArrayUnaccessData@@YAJPAUtagSAFEARRAY@@@Z @ 462 NONAME
	?AfxThunkSafeArrayUnlock@@YAJPAUtagSAFEARRAY@@@Z @ 463 NONAME
	?AfxThunkSetConvertStg@@YAJPAUIStorage@@H@Z @ 464 NONAME
	?AfxThunkStgCreateDocfile@@YAJPBGKKPAPAUIStorage@@@Z @ 465 NONAME
	?AfxThunkStgCreateDocfileOnILockBytes@@YAJPAUILockBytes@@KKPAPAUIStorage@@@Z @ 466 NONAME
	?AfxThunkStgIsStorageFile@@YAJPBG@Z @ 467 NONAME
	?AfxThunkStgIsStorageILockBytes@@YAJPAUILockBytes@@@Z @ 468 NONAME
	?AfxThunkStgOpenStorage@@YAJPBGPAUIStorage@@KPAPAGKPAPAU1@@Z @ 469 NONAME
	?AfxThunkStgOpenStorageOnILockBytes@@YAJPAUILockBytes@@PAUIStorage@@KPAPAGKPAPAU2@@Z @ 470 NONAME
	?AfxThunkStringFromCLSID@@YAJABU_GUID@@PAPAG@Z @ 471 NONAME
	?AfxThunkStringFromGUID2@@YAHABU_GUID@@PAGH@Z @ 472 NONAME
	?AfxThunkSysAllocString@@YAPAGPBG@Z @ 473 NONAME
	?AfxThunkSysAllocStringByteLen@@YAPAGPBDI@Z @ 474 NONAME
	?AfxThunkSysAllocStringLen@@YAPAGPBGI@Z @ 475 NONAME
	?AfxThunkSysFreeString@@YAXPAG@Z @ 476 NONAME
	?AfxThunkSysReAllocStringLen@@YAHPAPAGPBGI@Z @ 477 NONAME
	?AfxThunkSysStringByteLen@@YAIPAG@Z @ 478 NONAME
	?AfxThunkSysStringLen@@YAIPAG@Z @ 479 NONAME
	?AfxThunkVarBstrFromCy@@YAJTtagCY@@KKPAPAG@Z @ 480 NONAME
	?AfxThunkVarBstrFromDate@@YAJNKKPAPAG@Z @ 481 NONAME
	?AfxThunkVarCyFromStr@@YAJPAGKKPATtagCY@@@Z @ 482 NONAME
	?AfxThunkVarDateFromStr@@YAJPAGKKPAN@Z @ 483 NONAME
	?AfxThunkVariantChangeType@@YAJPAUtagVARIANT@@0GG@Z @ 484 NONAME
	?AfxThunkVariantClear@@YAJPAUtagVARIANT@@@Z @ 485 NONAME
	?AfxThunkVariantCopy@@YAJPAUtagVARIANT@@0@Z @ 486 NONAME
	?AfxThunkWriteClassStg@@YAJPAUIStorage@@ABU_GUID@@@Z @ 487 NONAME
	?AfxThunkWriteClassStm@@YAJPAUIStream@@ABU_GUID@@@Z @ 488 NONAME
	?AfxThunkWriteFmtUserTypeStg@@YAJPAUIStorage@@GPAG@Z @ 489 NONAME
	?AfxUnmergeMenus@@YAXPAUHMENU__@@00@Z @ 490 NONAME
	?AfxVariantInit@@YAXPAUtagVARIANT@@@Z @ 491 NONAME
	?AfxWndProcDllOle@@YAJPAUHWND__@@IIJ@Z @ 492 NONAME
	?AllocData@COleSafeArray@@QAAXXZ @ 493 NONAME
	?AllocDescriptor@COleSafeArray@@QAAXK@Z @ 494 NONAME
	?AllocSysString@CString@@QBAPAGXZ @ 495 NONAME
	?AllocValue@CProperty@@AAAPAXK@Z @ 496 NONAME
	?AmbientAppearance@COleControl@@QAAFXZ @ 497 NONAME
	?AmbientBackColor@COleControl@@QAAKXZ @ 498 NONAME
	?AmbientDisplayName@COleControl@@QAA?AVCString@@XZ @ 499 NONAME
	?AmbientFont@COleControl@@QAAPAUIFontDisp@@XZ @ 500 NONAME
	?AmbientForeColor@COleControl@@QAAKXZ @ 501 NONAME
	?AmbientLocaleID@COleControl@@QAAKXZ @ 502 NONAME
	?AmbientScaleUnits@COleControl@@QAA?AVCString@@XZ @ 503 NONAME
	?AmbientShowGrabHandles@COleControl@@QAAHXZ @ 504 NONAME
	?AmbientShowHatching@COleControl@@QAAHXZ @ 505 NONAME
	?AmbientTextAlign@COleControl@@QAAFXZ @ 506 NONAME
	?AmbientUIDead@COleControl@@QAAHXZ @ 507 NONAME
	?AmbientUserMode@COleControl@@QAAHXZ @ 508 NONAME
	?Apply@XPropertyPage@COlePropertyPage@@UAAJXZ @ 509 NONAME
	?AssertValid@CObject@@UBAXXZ @ 510 NONAME
	?Attach@COleSafeArray@@QAAXAAUtagVARIANT@@@Z @ 511 NONAME
	?Attach@COleStreamFile@@QAAXPAUIStream@@@Z @ 512 NONAME
	?Attach@COleVariant@@QAAXAAUtagVARIANT@@@Z @ 513 NONAME
	?AttachDispatch@COleDispatchDriver@@QAAXPAUIDispatch@@H@Z @ 514 NONAME
	?AttachWindow@COleControlSite@@IAAXXZ @ 515 NONAME
	?BeginModalState@CWnd@@UAAXXZ @ 516 NONAME
	?BoundPropertyChanged@COleControl@@QAAXJ@Z @ 517 NONAME
	?BoundPropertyRequestEdit@COleControl@@QAAHJ@Z @ 518 NONAME
	?ButtonDblClk@COleControl@@IAAXGIVCPoint@@@Z @ 519 NONAME
	?ButtonDown@COleControl@@IAAXGIVCPoint@@@Z @ 520 NONAME
	?ButtonUp@COleControl@@IAAXGIVCPoint@@@Z @ 521 NONAME
	?Cache@_AFXCTL_AMBIENT_CACHE@@QAAXPAUtagQACONTAINER@@@Z @ 522 NONAME
	?Cache@CTypeLibCache@@QAAXKPAUITypeLib@@@Z @ 523 NONAME
	?CacheData@COleDataSource@@QAAXGPAUtagSTGMEDIUM@@PAUtagFORMATETC@@@Z @ 524 NONAME
	?CacheGlobalData@COleDataSource@@QAAXGPAXPAUtagFORMATETC@@@Z @ 525 NONAME
	?CacheTypeInfo@CTypeLibCache@@QAAXKABU_GUID@@PAUITypeInfo@@@Z @ 526 NONAME
	?CallMemberFunc@CCmdTarget@@IAAJPBUAFX_DISPMAP_ENTRY@@GPAUtagVARIANT@@PAUtagDISPPARAMS@@PAI@Z @ 527 NONAME
	?CanInPlaceActivate@XOleIPSite@COleControlSite@@UAAJXZ @ 528 NONAME
	?ChangeType@COleVariant@@QAAXGPAUtagVARIANT@@@Z @ 529 NONAME
	?CharSetOfFace@@YAJPAUHDC__@@PAG1@Z @ 530 NONAME
	?CharSetOfFaceCallBack@@YAHPAUtagENUMLOGFONT@@PAUtagTEXTMETRICW@@HJ@Z @ 531 NONAME
	?CheckDlgButton@COleControlContainer@@UAAXHI@Z @ 532 NONAME
	?CheckRadioButton@COleControlContainer@@UAAXHHH@Z @ 533 NONAME
	?CheckRange@COleDateTime@@IAAXXZ @ 534 NONAME
	?CheckRange@COleDateTimeSpan@@QAAXXZ @ 535 NONAME
	?ChkName@CCeFont@@QAAJPAG@Z @ 536 NONAME
	?CleanupObjectArray@COlePropertyPage@@IAAXXZ @ 537 NONAME
	?ClientToParent@COleControl@@UBAXPBUtagRECT@@PAUtagPOINT@@@Z @ 538 NONAME
	?ClipCaretRect@COleControl@@QAAHPAUtagRECT@@@Z @ 539 NONAME
	?Clone@CCeFont@@UAAJPAPAUIFont@@@Z @ 540 NONAME
	?Clone@CStreamImp@@UAAJPAPAUIStream@@@Z @ 541 NONAME
	?Clone@XEnumVOID@CEnumArray@@UAAJPAPAUIEnumVOID@@@Z @ 542 NONAME
	?Close@COleStreamFile@@UAAXXZ @ 543 NONAME
	?Close@XOleObject@COleControl@@UAAJK@Z @ 544 NONAME
	?Commit@CStreamImp@@UAAJK@Z @ 545 NONAME
	?ConnectSink@COleControlSite@@IAAKABU_GUID@@PAUIUnknown@@@Z @ 546 NONAME
	?ContextSensitiveHelp@XOleInPlaceActiveObject@COleControl@@UAAJH@Z @ 548 NONAME
	?ContextSensitiveHelp@XOleInPlaceObject@COleControl@@UAAJH@Z @ 549 NONAME
	?ContextSensitiveHelp@XOleIPFrame@COleControlContainer@@UAAJH@Z @ 550 NONAME
	?ContextSensitiveHelp@XOleIPSite@COleControlSite@@UAAJH@Z @ 551 NONAME
	?ControlInfoChanged@COleControl@@QAAXXZ @ 552 NONAME
	?Copy@COleSafeArray@@QAAXPAPAUtagSAFEARRAY@@@Z @ 553 NONAME
	?CopyTo@CStreamImp@@UAAJPAUIStream@@T_ULARGE_INTEGER@@PAT3@2@Z @ 555 NONAME
	?Create@CControlFrameWnd@@UAAHPBG@Z @ 556 NONAME
	?Create@CDateTimeCtrl@@QAAHKABUtagRECT@@PAVCWnd@@I@Z @ 557 NONAME
	?Create@CMonthCalCtrl@@QAAHKABUtagPOINT@@PAVCWnd@@I@Z @ 558 NONAME
	?Create@CMonthCalCtrl@@QAAHKABUtagRECT@@PAVCWnd@@I@Z @ 559 NONAME
	?Create@COleSafeArray@@QAAXGKPAK@Z @ 560 NONAME
	?Create@COleSafeArray@@QAAXGKPAUtagSAFEARRAYBOUND@@@Z @ 561 NONAME
	?Create@CReflectorWnd@@QAAHABVCRect@@PAUHWND__@@@Z @ 562 NONAME
	?CreateConnectionArray@CConnectionPoint@@QAAXXZ @ 563 NONAME
	?CreateContainer@COccManager@@UAAPAVCOleControlContainer@@PAVCWnd@@@Z @ 564 NONAME
	?CreateControl@COleControlContainer@@QAAHPAVCWnd@@ABU_GUID@@PBGKABUtagRECT@@IPAVCFile@@HPAGPAPAVCOleControlSite@@@Z @ 565 NONAME
	?CreateControl@COleControlContainer@@QAAHPAVCWnd@@ABU_GUID@@PBGKPBUtagPOINT@@PBUtagSIZE@@IPAVCFile@@HPAGPAPAVCOleControlSite@@@Z @ 566 NONAME
	?CreateControl@COleControlSite@@QAAJPAVCWnd@@ABU_GUID@@PBGKABUtagRECT@@IPAVCFile@@HPAG@Z @ 567 NONAME
	?CreateControl@COleControlSite@@QAAJPAVCWnd@@ABU_GUID@@PBGKPBUtagPOINT@@PBUtagSIZE@@IPAVCFile@@HPAG@Z @ 568 NONAME
	?CreateControl@CWnd@@QAAHABU_GUID@@PBGKABUtagRECT@@PAV1@IPAVCFile@@HPAG@Z @ 569 NONAME
	?CreateControl@CWnd@@QAAHABU_GUID@@PBGKPBUtagPOINT@@PBUtagSIZE@@PAV1@IPAVCFile@@HPAG@Z @ 570 NONAME
	?CreateControl@CWnd@@QAAHPBG0KABUtagRECT@@PAV1@IPAVCFile@@HPAG@Z @ 571 NONAME
	?CreateControlWindow@COleControl@@MAAHPAUHWND__@@ABVCRect@@PBUtagRECT@@@Z @ 572 NONAME
	?CreateDispatch@COleDispatchDriver@@QAAHABU_GUID@@PAVCOleException@@@Z @ 573 NONAME
	?CreateDispatch@COleDispatchDriver@@QAAHPBGPAVCOleException@@@Z @ 574 NONAME
	?CreateDlgControl@COccManager@@IAAPAUHWND__@@PAVCWnd@@PAU2@HPAUDLGITEMTEMPLATE@@GPAEK@Z @ 575 NONAME
	?CreateDlgControls@COccManager@@UAAHPAVCWnd@@PAXPAU_AFX_OCC_DIALOG_INFO@@@Z @ 576 NONAME
	?CreateDlgControls@COccManager@@UAAHPAVCWnd@@PBGPAU_AFX_OCC_DIALOG_INFO@@@Z @ 577 NONAME
	?CreateFont@CCeFont@@SAJPAUtagFONTDESC@@ABU_GUID@@PAPAX@Z @ 578 NONAME
	?CreateFrameWindow@COleControl@@MAAPAVCControlFrameWnd@@XZ @ 579 NONAME
	?CreateInstance@XClassFactory@COleObjectFactory@@UAAJPAUIUnknown@@ABU_GUID@@PAPAX@Z @ 580 NONAME
	?CreateInstanceLic@XClassFactory@COleObjectFactory@@UAAJPAUIUnknown@@0ABU_GUID@@PAGPAPAX@Z @ 581 NONAME
	?CreateMatchingFont@CCeFont@@QAAJPAPAUHFONT__@@@Z @ 582 NONAME
	?CreateMemoryStream@COleStreamFile@@QAAHPAVCFileException@@@Z @ 583 NONAME
	?CreateObject@?$CProcessLocal@V_AFX_OLE_STATE@@@@SAPAVCNoTrackObject@@XZ @ 584 NONAME
	?CreateObject@?$CProcessLocal@VCOccManager@@@@SAPAVCNoTrackObject@@XZ @ 585 NONAME
	?CreateObject@?$CThreadLocal@V_AFXCTL_AMBIENT_CACHE@@@@SAPAVCNoTrackObject@@XZ @ 586 NONAME
	?CreateOleFont@COleControlContainer@@QAAXPAVCFont@@@Z @ 587 NONAME
	?CreateOneDim@COleSafeArray@@QAAXGKPBXJ@Z @ 588 NONAME
	?CreateOrLoad@COleControlSite@@IAAJABU_GUID@@PAVCFile@@HPAG@Z @ 589 NONAME
	?CreateSite@COccManager@@UAAPAVCOleControlSite@@PAVCOleControlContainer@@@Z @ 590 NONAME
	?CreateStream@COleStreamFile@@QAAHPAUIStorage@@PBGKPAVCFileException@@@Z @ 591 NONAME
	?CreateTracker@COleControl@@IAAXHH@Z @ 592 NONAME
	?CreateTracker@COleControl@@IAAXHHPBUtagRECT@@@Z @ 593 NONAME
	?CreateWindowForSubclassedControl@COleControl@@IAAXXZ @ 594 NONAME
	?DAdvise@XDataObject@COleDataSource@@UAAJPAUtagFORMATETC@@KPAUIAdviseSink@@PAK@Z @ 595 NONAME
	?DDP_Check@@YAXPAVCDataExchange@@HAAHPBG@Z @ 596 NONAME
	?DDP_EndCheck@@YAXPAVCDataExchange@@HPAHPBG@Z @ 597 NONAME
	?DDP_EndRadio@@YAXPAVCDataExchange@@HPAHPBG@Z @ 598 NONAME
	?DDP_EndText@@YAXPAVCDataExchange@@HPAEPBG@Z @ 599 NONAME
	?DDP_EndText@@YAXPAVCDataExchange@@HPAFPBG@Z @ 600 NONAME
	?DDP_EndText@@YAXPAVCDataExchange@@HPAHPBG@Z @ 601 NONAME
	?DDP_EndText@@YAXPAVCDataExchange@@HPAIPBG@Z @ 602 NONAME
	?DDP_EndText@@YAXPAVCDataExchange@@HPAJPBG@Z @ 603 NONAME
	?DDP_EndText@@YAXPAVCDataExchange@@HPAKPBG@Z @ 604 NONAME
	?DDP_EndText@@YAXPAVCDataExchange@@HPAMPBG@Z @ 605 NONAME
	?DDP_EndText@@YAXPAVCDataExchange@@HPANPBG@Z @ 606 NONAME
	?DDP_EndText@@YAXPAVCDataExchange@@HPAVCString@@PBG@Z @ 607 NONAME
	?DDP_PostProcessing@@YAXPAVCDataExchange@@@Z @ 608 NONAME
	?DDP_Radio@@YAXPAVCDataExchange@@HAAHPBG@Z @ 609 NONAME
	?DDP_Text@@YAXPAVCDataExchange@@HAAEPBG@Z @ 610 NONAME
	?DDP_Text@@YAXPAVCDataExchange@@HAAFPBG@Z @ 611 NONAME
	?DDP_Text@@YAXPAVCDataExchange@@HAAHPBG@Z @ 612 NONAME
	?DDP_Text@@YAXPAVCDataExchange@@HAAIPBG@Z @ 613 NONAME
	?DDP_Text@@YAXPAVCDataExchange@@HAAJPBG@Z @ 614 NONAME
	?DDP_Text@@YAXPAVCDataExchange@@HAAKPBG@Z @ 615 NONAME
	?DDP_Text@@YAXPAVCDataExchange@@HAAMPBG@Z @ 616 NONAME
	?DDP_Text@@YAXPAVCDataExchange@@HAANPBG@Z @ 617 NONAME
	?DDP_Text@@YAXPAVCDataExchange@@HAAVCString@@PBG@Z @ 618 NONAME
	?DDV_MinMaxDateTime@@YAXPAVCDataExchange@@AAVCOleDateTime@@PBV2@2@Z @ 619 NONAME
	?DDV_MinMaxDateTime@@YAXPAVCDataExchange@@AAVCTime@@PBV2@2@Z @ 620 NONAME
	?DDV_MinMaxMonth@@YAXPAVCDataExchange@@AAVCOleDateTime@@PBV2@2@Z @ 621 NONAME
	?DDV_MinMaxMonth@@YAXPAVCDataExchange@@AAVCTime@@PBV2@2@Z @ 622 NONAME
	?DDX_DateTimeCtrl@@YAXPAVCDataExchange@@HAAVCOleDateTime@@@Z @ 623 NONAME
	?DDX_DateTimeCtrl@@YAXPAVCDataExchange@@HAAVCTime@@@Z @ 624 NONAME
	?DDX_MonthCalCtrl@@YAXPAVCDataExchange@@HAAVCOleDateTime@@@Z @ 625 NONAME
	?DDX_MonthCalCtrl@@YAXPAVCDataExchange@@HAAVCTime@@@Z @ 626 NONAME
	?DDX_OCBool@@YAXPAVCDataExchange@@HJAAH@Z @ 627 NONAME
	?DDX_OCBoolRO@@YAXPAVCDataExchange@@HJAAH@Z @ 628 NONAME
	?DDX_OCColor@@YAXPAVCDataExchange@@HJAAK@Z @ 629 NONAME
	?DDX_OCColorRO@@YAXPAVCDataExchange@@HJAAK@Z @ 630 NONAME
	?DDX_OCFloat@@YAXPAVCDataExchange@@HJAAM@Z @ 631 NONAME
	?DDX_OCFloat@@YAXPAVCDataExchange@@HJAAN@Z @ 632 NONAME
	?DDX_OCFloatRO@@YAXPAVCDataExchange@@HJAAM@Z @ 633 NONAME
	?DDX_OCFloatRO@@YAXPAVCDataExchange@@HJAAN@Z @ 634 NONAME
	?DDX_OCInt@@YAXPAVCDataExchange@@HJAAH@Z @ 635 NONAME
	?DDX_OCInt@@YAXPAVCDataExchange@@HJAAJ@Z @ 636 NONAME
	?DDX_OCIntRO@@YAXPAVCDataExchange@@HJAAH@Z @ 637 NONAME
	?DDX_OCIntRO@@YAXPAVCDataExchange@@HJAAJ@Z @ 638 NONAME
	?DDX_OCShort@@YAXPAVCDataExchange@@HJAAF@Z @ 639 NONAME
	?DDX_OCShortRO@@YAXPAVCDataExchange@@HJAAF@Z @ 640 NONAME
	?DDX_OCText@@YAXPAVCDataExchange@@HJAAVCString@@@Z @ 641 NONAME
	?DDX_OCTextRO@@YAXPAVCDataExchange@@HJAAVCString@@@Z @ 642 NONAME
	?DDX_Text@@YAXPAVCDataExchange@@HAAVCOleCurrency@@@Z @ 643 NONAME
	?DDX_Text@@YAXPAVCDataExchange@@HAAVCOleDateTime@@@Z @ 644 NONAME
	?Deactivate@XPropertyPage@COlePropertyPage@@UAAJXZ @ 645 NONAME
	?DeactivateAndUndo@XOleIPSite@COleControlSite@@UAAJXZ @ 646 NONAME
	?DefWindowProcW@COleControl@@MAAJIIJ@Z @ 647 NONAME
	?DelayRenderData@COleDataSource@@QAAXGPAUtagFORMATETC@@@Z @ 648 NONAME
	?DelayRenderFileData@COleDataSource@@QAAXGPAUtagFORMATETC@@@Z @ 649 NONAME
	?DelaySetData@COleDataSource@@QAAXGPAUtagFORMATETC@@@Z @ 650 NONAME
	?Destroy@COleSafeArray@@QAAXXZ @ 651 NONAME
	?DestroyControl@COleControlSite@@UAAHXZ @ 652 NONAME
	?DestroyData@COleSafeArray@@QAAXXZ @ 653 NONAME
	?DestroyDescriptor@COleSafeArray@@QAAXXZ @ 654 NONAME
	?DestroyTracker@COleControl@@IAAXXZ @ 655 NONAME
	?Detach@COleSafeArray@@QAA?AUtagVARIANT@@XZ @ 657 NONAME
	?Detach@COleStreamFile@@QAAPAUIStream@@XZ @ 658 NONAME
	?Detach@COleVariant@@QAA?AUtagVARIANT@@XZ @ 659 NONAME
	?Detach@CWindowlessDC@@QAAPAUHDC__@@XZ @ 660 NONAME
	?DetachDispatch@COleDispatchDriver@@QAAPAUIDispatch@@XZ @ 661 NONAME
	?DetachWindow@COleControlSite@@IAAXXZ @ 662 NONAME
	?DiscardFont@CCeFont@@QAAJHJ@Z @ 663 NONAME
	?DiscardUndoState@XOleIPSite@COleControlSite@@UAAJXZ @ 664 NONAME
	?Disconnect@COleDispatchImpl@@UAAXXZ @ 665 NONAME
	?DisconnectSink@COleControlSite@@IAAXABU_GUID@@K@Z @ 666 NONAME
	?DisplayError@COleControl@@UAAXJPBG00I@Z @ 667 NONAME
	?DoClick@COleControl@@QAAXXZ @ 668 NONAME
	?DoDataExchange@CWnd@@MAAXPAVCDataExchange@@@Z @ 669 NONAME
	?DoOleVerb@CCmdTarget@@QAAHJPAUtagMSG@@PAUHWND__@@PBUtagRECT@@@Z @ 670 NONAME
	?DoPropExchange@COleControl@@UAAXPAVCPropExchange@@@Z @ 671 NONAME
	?DoSuperclassPaint@COleControl@@QAAXPAVCDC@@ABVCRect@@@Z @ 672 NONAME
	?DoVerb@COleControlSite@@UAAJJPAUtagMSG@@@Z @ 673 NONAME
	?DoVerb@XOleObject@COleControl@@UAAJJPAUtagMSG@@PAUIOleClientSite@@JPAUHWND__@@PBUtagRECT@@@Z @ 674 NONAME
	?Draw@XViewObject@COleControl@@UAAJKJPAXPAUtagDVTARGETDEVICE@@PAUHDC__@@2PBU_RECTL@@3P6AHK@ZK@Z @ 675 NONAME
	?DrawContent@COleControl@@IAAXPAVCDC@@AAVCRect@@@Z @ 676 NONAME
	?DrawTextW@CDC@@UAAHPBGHPAUtagRECT@@I@Z @ 677 NONAME
	?Dump@CObject@@UBAXAAVCDumpContext@@@Z @ 678 NONAME
	?DUnadvise@XDataObject@COleDataSource@@UAAJK@Z @ 679 NONAME
	?Duplicate@COleStreamFile@@UBAPAVCFile@@XZ @ 680 NONAME
	?EditProperty@XPropertyPage@COlePropertyPage@@UAAJJ@Z @ 681 NONAME
	?Empty@COleDataSource@@QAAXXZ @ 682 NONAME
	?EnableAggregation@CCmdTarget@@QAAXXZ @ 683 NONAME
	?EnableAutomation@CCmdTarget@@QAAXXZ @ 684 NONAME
	?EnableConnections@CCmdTarget@@QAAXXZ @ 685 NONAME
	?EnableModeless@XOleInPlaceActiveObject@COleControl@@UAAJH@Z @ 686 NONAME
	?EnableModeless@XOleIPFrame@COleControlContainer@@UAAJH@Z @ 687 NONAME
	?EnableSimpleFrame@COleControl@@QAAXXZ @ 688 NONAME
	?EnableTypeLib@CCmdTarget@@QAAXXZ @ 689 NONAME
	?EnableWindow@COleControlSite@@UAAHH@Z @ 690 NONAME
	?EndModalState@CWnd@@UAAXXZ @ 691 NONAME
	?EnumAdvise@XOleObject@COleControl@@UAAJPAPAUIEnumSTATDATA@@@Z @ 692 NONAME
	?EnumChildProc@COlePropertyPage@@KAHPAUHWND__@@J@Z @ 693 NONAME
	?EnumConnectionPoints@COleConnPtContainer@@UAAJPAPAUIEnumConnectionPoints@@@Z @ 694 NONAME
	?EnumConnections@XConnPt@CConnectionPoint@@UAAJPAPAUIEnumConnections@@@Z @ 695 NONAME
	?EnumControls@COlePropertyPage@@KAHPAUHWND__@@J@Z @ 696 NONAME
	?EnumDAdvise@XDataObject@COleDataSource@@UAAJPAPAUIEnumSTATDATA@@@Z @ 697 NONAME
	?EnumFormatEtc@XDataObject@COleDataSource@@UAAJKPAPAUIEnumFORMATETC@@@Z @ 698 NONAME
	?EnumObjects@XOleContainer@COleControlContainer@@UAAJKPAPAUIEnumUnknown@@@Z @ 699 NONAME
	?EnumOleVerbs@CCmdTarget@@QAAHPAPAUIEnumOLEVERB@@@Z @ 700 NONAME
	?EnumVerbs@XOleObject@COleControl@@UAAJPAPAUIEnumOLEVERB@@@Z @ 701 NONAME
	?ExchangeBlobProp@CArchivePropExchange@@UAAHPBGPAPAXPAX@Z @ 702 NONAME
	?ExchangeBlobProp@CAsyncPropExchange@@UAAHPBGPAPAXPAX@Z @ 703 NONAME
	?ExchangeBlobProp@CPropbagPropExchange@@UAAHPBGPAPAXPAX@Z @ 704 NONAME
	?ExchangeBlobProp@CPropsetPropExchange@@UAAHPBGPAPAXPAX@Z @ 705 NONAME
	?ExchangeBlobProp@CResetPropExchange@@UAAHPBGPAPAXPAX@Z @ 706 NONAME
	?ExchangeExtent@COleControl@@QAAHPAVCPropExchange@@@Z @ 707 NONAME
	?ExchangeFontProp@CArchivePropExchange@@UAAHPBGAAVCFontHolder@@PBUtagFONTDESC@@PAUIFontDisp@@@Z @ 708 NONAME
	?ExchangeFontProp@CAsyncPropExchange@@UAAHPBGAAVCFontHolder@@PBUtagFONTDESC@@PAUIFontDisp@@@Z @ 709 NONAME
	?ExchangeFontProp@CPropbagPropExchange@@UAAHPBGAAVCFontHolder@@PBUtagFONTDESC@@PAUIFontDisp@@@Z @ 710 NONAME
	?ExchangeFontProp@CPropsetPropExchange@@UAAHPBGAAVCFontHolder@@PBUtagFONTDESC@@PAUIFontDisp@@@Z @ 711 NONAME
	?ExchangeFontProp@CResetPropExchange@@UAAHPBGAAVCFontHolder@@PBUtagFONTDESC@@PAUIFontDisp@@@Z @ 712 NONAME
	?ExchangePersistentProp@CArchivePropExchange@@UAAHPBGPAPAUIUnknown@@ABU_GUID@@PAU2@@Z @ 713 NONAME
	?ExchangePersistentProp@CAsyncPropExchange@@UAAHPBGPAPAUIUnknown@@ABU_GUID@@PAU2@@Z @ 714 NONAME
	?ExchangePersistentProp@CPropbagPropExchange@@UAAHPBGPAPAUIUnknown@@ABU_GUID@@PAU2@@Z @ 715 NONAME
	?ExchangePersistentProp@CPropsetPropExchange@@UAAHPBGPAPAUIUnknown@@ABU_GUID@@PAU2@@Z @ 716 NONAME
	?ExchangePersistentProp@CResetPropExchange@@UAAHPBGPAPAUIUnknown@@ABU_GUID@@PAU2@@Z @ 717 NONAME
	?ExchangeProp@CArchivePropExchange@@UAAHPBGGPAXPBX@Z @ 718 NONAME
	?ExchangeProp@CAsyncPropExchange@@UAAHPBGGPAXPBX@Z @ 719 NONAME
	?ExchangeProp@CPropbagPropExchange@@UAAHPBGGPAXPBX@Z @ 720 NONAME
	?ExchangeProp@CPropsetPropExchange@@UAAHPBGGPAXPBX@Z @ 721 NONAME
	?ExchangeProp@CResetPropExchange@@UAAHPBGGPAXPBX@Z @ 722 NONAME
	?ExchangeStockProps@COleControl@@QAAXPAVCPropExchange@@@Z @ 723 NONAME
	?ExchangeVersion@CAsyncPropExchange@@UAAHAAKKH@Z @ 724 NONAME
	?ExchangeVersion@CPropExchange@@UAAHAAKKH@Z @ 725 NONAME
	?ExitInstance@COleControlModule@@UAAHXZ @ 726 NONAME
	?ExternalAddRef@CCmdTarget@@QAAKXZ @ 727 NONAME
	?ExternalDisconnect@CCmdTarget@@QAAXXZ @ 728 NONAME
	?ExternalQueryInterface@CCmdTarget@@QAAKPBXPAPAX@Z @ 729 NONAME
	?ExternalRelease@CCmdTarget@@QAAKXZ @ 730 NONAME
	?ExtTextOutW@CDC@@UAAHHHIPBUtagRECT@@PBGIPAH@Z @ 731 NONAME
	?FindConnectionPoint@COleConnPtContainer@@UAAJABU_GUID@@PAPAUIConnectionPoint@@@Z @ 732 NONAME
	?FindItem@COleControlContainer@@UBAPAVCOleControlSite@@I@Z @ 733 NONAME
	?FindMatchingFont@CCeFont@@QAAJPAH@Z @ 734 NONAME
	?FireError@COleControl@@QAAXJPBGI@Z @ 735 NONAME
	?FireEvent@COleControl@@QAAXJPAEZZ @ 736 NONAME
	?FireEventV@COleControl@@IAAXJPAEPAD@Z @ 737 NONAME
	?Flush@COleStreamFile@@UAAXXZ @ 738 NONAME
	?FontToCeFont@CFontHolder@@QAAXXZ @ 739 NONAME
	?Format@COleCurrency@@QBA?AVCString@@KK@Z @ 740 NONAME
	?Format@COleDateTime@@QBA?AVCString@@KK@Z @ 741 NONAME
	?ForwardActivationMsg@COleControl@@IAAXPAUtagMSG@@@Z @ 742 NONAME
	?FreeValue@CProperty@@AAAXXZ @ 743 NONAME
	?Freeze@XViewObject@COleControl@@UAAJKJPAXPAK@Z @ 744 NONAME
	?FreezeAllEvents@COleControlContainer@@QAAXH@Z @ 745 NONAME
	?FreezeEvents@COleControlSite@@QAAXH@Z @ 746 NONAME
	?FreezeEvents@XOleControl@COleControl@@UAAJH@Z @ 747 NONAME
	?FrEq@@YAHPAUFR@@0@Z @ 1668 NONAME
	?FromIDispatch@CCmdTarget@@SAPAV1@PAUIDispatch@@@Z @ 748 NONAME
	?Get@CProperty@@QAAPAXPAK@Z @ 749 NONAME
	?Get@CProperty@@QAAPAXXZ @ 750 NONAME
	?Get@CPropertySection@@QAAPAXK@Z @ 751 NONAME
	?Get@CPropertySection@@QAAPAXKPAK@Z @ 752 NONAME
	?Get@CPropertySet@@QAAPAXU_GUID@@K@Z @ 753 NONAME
	?Get@CPropertySet@@QAAPAXU_GUID@@KPAK@Z @ 754 NONAME
	?get_Bold@CCeFont@@UAAJPAH@Z @ 755 NONAME
	?get_Charset@CCeFont@@UAAJPAF@Z @ 756 NONAME
	?get_hFont@CCeFont@@UAAJPAPAUHFONT__@@@Z @ 757 NONAME
	?get_Italic@CCeFont@@UAAJPAH@Z @ 758 NONAME
	?get_Name@CCeFont@@UAAJPAPAG@Z @ 759 NONAME
	?get_Size@CCeFont@@UAAJPATtagCY@@@Z @ 760 NONAME
	?get_Strikethrough@CCeFont@@UAAJPAH@Z @ 761 NONAME
	?get_Underline@CCeFont@@UAAJPAH@Z @ 762 NONAME
	?get_Weight@CCeFont@@UAAJPAF@Z @ 763 NONAME
	?GetActivationPolicy@COleControl@@UAAKXZ @ 764 NONAME
	?GetActivationPolicy@XPointerInactive@COleControl@@UAAJPAK@Z @ 765 NONAME
	?GetAdvise@XViewObject@COleControl@@UAAJPAK0PAPAUIAdviseSink@@@Z @ 766 NONAME
	?GetAmbientDispatchDriver@COleControl@@IAAPAVCOleDispatchDriver@@XZ @ 767 NONAME
	?GetAmbientProp@COleControlContainer@@UAAHPAVCOleControlSite@@JPAUtagVARIANT@@@Z @ 768 NONAME
	?GetAmbientProperty@COleControl@@QAAHJGPAX@Z @ 769 NONAME
	?GetAppearance@COleControl@@QAAFXZ @ 770 NONAME
	?GetAsSystemTime@COleDateTime@@QBAHAAU_SYSTEMTIME@@@Z @ 771 NONAME
	?GetAt@CAfxOleSymbolTable@@QBAPBGH@Z @ 772 NONAME
	?GetBackColor@COleControl@@QAAKXZ @ 773 NONAME
	?GetBlob@CBlobProperty@@QAAPAXXZ @ 774 NONAME
	?GetBorder@XOleIPFrame@COleControlContainer@@UAAJPAUtagRECT@@@Z @ 775 NONAME
	?GetBorderStyle@COleControl@@QAAFXZ @ 776 NONAME
	?GetByteOrder@CPropertySet@@QAAGXZ @ 777 NONAME
	?GetCacheEntry@COleDataSource@@IAAPAUAFX_DATACACHE_ENTRY@@PAUtagFORMATETC@@W4tagDATADIR@@@Z @ 778 NONAME
	?GetCanonicalFormatEtc@XDataObject@COleDataSource@@UAAJPAUtagFORMATETC@@0@Z @ 779 NONAME
	?GetCapture@COleControl@@QAAPAVCWnd@@XZ @ 780 NONAME
	?GetClassID@CBlobProperty@@UAAJPAU_GUID@@@Z @ 781 NONAME
	?GetClassID@CCeFont@@UAAJPAU_GUID@@@Z @ 782 NONAME
	?GetClassID@CCeFont@@W3AAJPAU_GUID@@@Z @ 783 NONAME
	?GetClassID@CCeFont@@W7AAJPAU_GUID@@@Z @ 784 NONAME
	?GetClassID@CPropertySet@@QAA?AU_GUID@@XZ @ 785 NONAME
	?GetClassID@XPersistMemory@COleControl@@UAAJPAU_GUID@@@Z @ 786 NONAME
	?GetClassID@XPersistPropertyBag@COleControl@@UAAJPAU_GUID@@@Z @ 787 NONAME
	?GetClassID@XPersistStorage@COleControl@@UAAJPAU_GUID@@@Z @ 788 NONAME
	?GetClassID@XPersistStreamInit@COleControl@@UAAJPAU_GUID@@@Z @ 789 NONAME
	?GetClassInfoW@XProvideClassInfo@COleControl@@UAAJPAPAUITypeInfo@@@Z @ 790 NONAME
	?GetClientOffset@COleControl@@UBAXPAJ0@Z @ 791 NONAME
	?GetClientRect@COleControl@@UBAXPAUtagRECT@@@Z @ 792 NONAME
	?GetClientSite@COleControl@@QAAPAUIOleClientSite@@XZ @ 793 NONAME
	?GetClientSite@XOleObject@COleControl@@UAAJPAPAUIOleClientSite@@@Z @ 794 NONAME
	?GetClipboardData@XOleObject@COleControl@@UAAJKPAPAUIDataObject@@@Z @ 795 NONAME
	?GetColorSet@XViewObject@COleControl@@UAAJKJPAXPAUtagDVTARGETDEVICE@@PAUHDC__@@PAPAUtagLOGPALETTE@@@Z @ 796 NONAME
	?GetConnectionCount@CConnectionPoint@@QAAHXZ @ 797 NONAME
	?GetConnectionHook@COleControl@@MAAPAUIConnectionPoint@@ABU_GUID@@@Z @ 798 NONAME
	?GetConnectionInterface@XConnPt@CConnectionPoint@@UAAJPAU_GUID@@@Z @ 799 NONAME
	?GetConnectionMap@COleControl@@MBAPBUAFX_CONNECTIONMAP@@XZ @ 800 NONAME
	?GetConnectionPointContainer@XConnPt@CConnectionPoint@@UAAJPAPAUIConnectionPointContainer@@@Z @ 801 NONAME
	?GetConnections@CConnectionPoint@@QAAPBVCPtrArray@@XZ @ 802 NONAME
	?GetContainer@CConnectionPoint@@UAAPAUIConnectionPointContainer@@XZ @ 803 NONAME
	?GetContainer@XOleClientSite@COleControlSite@@UAAJPAPAUIOleContainer@@@Z @ 804 NONAME
	?GetContentExtent@XQuickActivate@COleControl@@UAAJPAUtagSIZE@@@Z @ 805 NONAME
	?GetControlFlags@COleControl@@UAAKXZ @ 806 NONAME
	?GetControlInfo@COleControlSite@@QAAXXZ @ 807 NONAME
	?GetControlInfo@XOleControl@COleControl@@UAAJPAUtagCONTROLINFO@@@Z @ 808 NONAME
	?GetControllingUnknown@CCmdTarget@@QAAPAUIUnknown@@XZ @ 809 NONAME
	?GetControlSize@COleControl@@QAAXPAH0@Z @ 810 NONAME
	?GetControlStatus@COlePropertyPage@@QAAHI@Z @ 811 NONAME
	?GetCount@CPropertySection@@QAAKXZ @ 812 NONAME
	?GetCount@CPropertySet@@QAAKXZ @ 813 NONAME
	?GetCurrentTime@COleDateTime@@SA?AV1@XZ @ 814 NONAME
	?GetCurSel@CMonthCalCtrl@@QBAHAAVCOleDateTime@@@Z @ 815 NONAME
	?GetCurSel@CMonthCalCtrl@@QBAHAAVCTime@@@Z @ 816 NONAME
	?GetCursor@COleControlSite@@IAAJJPAPAUIUnknown@@PAPAX@Z @ 817 NONAME
	?GetData@XDataObject@COleDataSource@@UAAJPAUtagFORMATETC@@PAUtagSTGMEDIUM@@@Z @ 818 NONAME
	?GetDataHere@XDataObject@COleDataSource@@UAAJPAUtagFORMATETC@@PAUtagSTGMEDIUM@@@Z @ 819 NONAME
	?GetDataSource@COleControl@@IAAPAVCControlDataSource@1@XZ @ 820 NONAME
	?GetDay@COleDateTime@@QBAHXZ @ 821 NONAME
	?GetDayOfWeek@COleDateTime@@QBAHXZ @ 822 NONAME
	?GetDayOfYear@COleDateTime@@QBAHXZ @ 823 NONAME
	?GetDC@COleControl@@QAAPAVCDC@@PBUtagRECT@@K@Z @ 824 NONAME
	?GetDefBtnCode@COccManager@@SAKPAVCWnd@@@Z @ 825 NONAME
	?GetDefBtnCode@COleControlSite@@QAAKXZ @ 826 NONAME
	?GetDispatchIID@COleControl@@MAAHPAU_GUID@@@Z @ 827 NONAME
	?GetDispatchMap@COleControlContainer@@MBAPBUAFX_DISPMAP@@XZ @ 828 NONAME
	?GetDispEntry@CCmdTarget@@IAAPBUAFX_DISPMAP_ENTRY@@J@Z @ 829 NONAME
	?GetDisplayString@CFontHolder@@QAAHAAVCString@@@Z @ 830 NONAME
	?GetDisplayString@XPerPropertyBrowsing@COleControl@@UAAJJPAPAG@Z @ 831 NONAME
	?GetDlgCtrlID@COleControlSite@@UBAHXZ @ 832 NONAME
	?GetDlgItem@COleControlContainer@@UBAPAVCWnd@@H@Z @ 833 NONAME
	?GetDlgItem@COleControlContainer@@UBAXHPAPAUHWND__@@@Z @ 834 NONAME
	?GetDlgItemInt@COleControlContainer@@UBAIHPAHH@Z @ 835 NONAME
	?GetDlgItemText@COleControlContainer@@UBAHHPAGH@Z @ 836 NONAME
	?GetDropTarget@XOleInPlaceObject@COleControl@@UAAJPAPAUIDropTarget@@@Z @ 837 NONAME
	?GetElement@COleSafeArray@@QAAXPAJPAX@Z @ 838 NONAME
	?GetEnabled@COleControl@@QAAHXZ @ 839 NONAME
	?GetEntryCount@CCmdTarget@@KAIPBUAFX_DISPMAP@@@Z @ 840 NONAME
	?GetErrorMessage@COleDispatchException@@UAAHPAGIPAI@Z @ 841 NONAME
	?GetErrorMessage@COleException@@UAAHPAGIPAI@Z @ 842 NONAME
	?GetEventIID@COleControlSite@@QAAHPAU_GUID@@@Z @ 843 NONAME
	?GetEventMap@COleControl@@MBAPBUAFX_EVENTMAP@@XZ @ 844 NONAME
	?GetEventMapEntry@COleControl@@IBAPBUAFX_EVENTMAP_ENTRY@@PBGPAJ@Z @ 845 NONAME
	?GetEventSinkEntry@CCmdTarget@@IAAPBUAFX_EVENTSINKMAP_ENTRY@@IPAUAFX_EVENT@@@Z @ 846 NONAME
	?GetExStyle@COleControlSite@@UBAKXZ @ 847 NONAME
	?GetExtendedControl@COleControl@@QAAPAUIDispatch@@XZ @ 848 NONAME
	?GetExtendedControl@XOleControlSite@COleControlSite@@UAAJPAPAUIDispatch@@@Z @ 849 NONAME
	?GetExtent@XOleObject@COleControl@@UAAJKPAUtagSIZE@@@Z @ 850 NONAME
	?GetExtent@XViewObject@COleControl@@UAAJKJPAUtagDVTARGETDEVICE@@PAUtagSIZE@@@Z @ 851 NONAME
	?GetExtraConnectionPoints@COleControl@@MAAHPAVCPtrArray@@@Z @ 852 NONAME
	?GetFirstDayOfWeek@CMonthCalCtrl@@QBAHPAH@Z @ 853 NONAME
	?GetFocus@COleControl@@QAAPAVCWnd@@XZ @ 854 NONAME
	?GetFont@COleControl@@QAAPAUIFontDisp@@XZ @ 855 NONAME
	?GetFont@CWnd@@QBAPAVCFont@@XZ @ 1669 NONAME
	?GetFontDispatch@CFontHolder@@QAAPAUIFontDisp@@XZ @ 856 NONAME
	?GetFontHandle@CFontHolder@@QAAPAUHFONT__@@JJ@Z @ 857 NONAME
	?GetFontHandle@CFontHolder@@QAAPAUHFONT__@@XZ @ 858 NONAME
	?GetFontTextMetrics@COleControl@@QAAXPAUtagTEXTMETRICW@@AAVCFontHolder@@@Z @ 859 NONAME
	?GetForeColor@COleControl@@QAAKXZ @ 860 NONAME
	?GetFormatID@CPropertySection@@QAA?AU_GUID@@XZ @ 861 NONAME
	?GetFormatVersion@CPropertySet@@QAAGXZ @ 862 NONAME
	?GetGUID@XProvideClassInfo@COleControl@@UAAJKPAU_GUID@@@Z @ 863 NONAME
	?GetHour@COleDateTime@@QBAHXZ @ 864 NONAME
	?GetHours@COleDateTimeSpan@@QBAJXZ @ 865 NONAME
	?GetHwnd@COleControl@@QAAIXZ @ 866 NONAME
	?GetID@COleControlSite@@QAAIXZ @ 867 NONAME
	?GetID@CProperty@@QAAKXZ @ 868 NONAME
	?GetID@CPropertySection@@QAAHPBGPAK@Z @ 869 NONAME
	?GetIDispatch@CCmdTarget@@QAAPAUIDispatch@@H@Z @ 870 NONAME
	?GetIDsOfNames@CCeFont@@UAAJABU_GUID@@PAPAGIKPAJ@Z @ 871 NONAME
	?GetIDsOfNames@COleDispatchImpl@@UAAJABU_GUID@@PAPAGIKPAJ@Z @ 872 NONAME
	?GetIDsOfNames@XAmbientProps@COleControlSite@@UAAJABU_GUID@@PAPAGIKPAJ@Z @ 873 NONAME
	?GetIDsOfNames@XEventSink@COleControlSite@@UAAJABU_GUID@@PAPAGIKPAJ@Z @ 874 NONAME
	?GetIID@XEventConnPt@COleControl@@UAAABU_GUID@@XZ @ 875 NONAME
	?GetIID@XPropConnPt@COleControl@@UAAABU_GUID@@XZ @ 876 NONAME
	?GetInterface@CCmdTarget@@QAAPAUIUnknown@@PBX@Z @ 877 NONAME
	?GetInterface@CUnknown@@QAAJPAUIUnknown@@PAPAX@Z @ 878 NONAME
	?GetInterfaceHook@COleControl@@MAAPAUIUnknown@@PBX@Z @ 879 NONAME
	?GetInterfaceMap@CEnumConnections@@MBAPBUAFX_INTERFACEMAP@@XZ @ 880 NONAME
	?GetInterfaceMap@CEnumConnPoints@@MBAPBUAFX_INTERFACEMAP@@XZ @ 881 NONAME
	?GetInterfaceMap@CEnumOleVerb@@MBAPBUAFX_INTERFACEMAP@@XZ @ 882 NONAME
	?GetInterfaceMap@CEnumUnknown@@MBAPBUAFX_INTERFACEMAP@@XZ @ 883 NONAME
	?GetInterfaceMap@COleControl@@MBAPBUAFX_INTERFACEMAP@@XZ @ 884 NONAME
	?GetInterfaceMap@COleControlContainer@@MBAPBUAFX_INTERFACEMAP@@XZ @ 885 NONAME
	?GetInterfaceMap@COleControlSite@@MBAPBUAFX_INTERFACEMAP@@XZ @ 886 NONAME
	?GetInterfaceMap@COleDataSource@@MBAPBUAFX_INTERFACEMAP@@XZ @ 887 NONAME
	?GetInterfaceMap@COleObjectFactory@@MBAPBUAFX_INTERFACEMAP@@XZ @ 888 NONAME
	?GetInterfaceMap@COlePropertyPage@@MBAPBUAFX_INTERFACEMAP@@XZ @ 889 NONAME
	?GetLBound@COleSafeArray@@QAAXKPAJ@Z @ 890 NONAME
	?GetLength@COleStreamFile@@UBAKXZ @ 891 NONAME
	?GetLicenseKey@COleObjectFactory@@MAAHKPAPAG@Z @ 892 NONAME
	?GetLicInfo@XClassFactory@COleObjectFactory@@UAAJPAUtagLICINFO@@@Z @ 893 NONAME
	?GetList@CPropertySection@@QAAPAVCPtrList@@XZ @ 894 NONAME
	?GetList@CPropertySet@@QAAPAVCPtrList@@XZ @ 895 NONAME
	?GetMaxConnections@CConnectionPoint@@UAAHXZ @ 896 NONAME
	?GetMessageMap@CControlFrameWnd@@MBAPBUAFX_MSGMAP@@XZ @ 897 NONAME
	?GetMessageMap@COleControl@@MBAPBUAFX_MSGMAP@@XZ @ 898 NONAME
	?GetMessageMap@COlePropertyPage@@MBAPBUAFX_MSGMAP@@XZ @ 899 NONAME
	?GetMessageString@COleControl@@UBAXIAAVCString@@@Z @ 900 NONAME
	?GetMinute@COleDateTime@@QBAHXZ @ 901 NONAME
	?GetMinutes@COleDateTimeSpan@@QBAJXZ @ 902 NONAME
	?GetMiscStatus@XOleObject@COleControl@@UAAJKPAK@Z @ 903 NONAME
	?GetMoniker@XOleClientSite@COleControlSite@@UAAJKKPAPAUIMoniker@@@Z @ 904 NONAME
	?GetMoniker@XOleObject@COleControl@@UAAJKKPAPAUIMoniker@@@Z @ 905 NONAME
	?GetMonth@COleDateTime@@QBAHXZ @ 906 NONAME
	?GetMonthRange@CMonthCalCtrl@@QBAHAAVCOleDateTime@@0K@Z @ 907 NONAME
	?GetMonthRange@CMonthCalCtrl@@QBAHAAVCTime@@0K@Z @ 908 NONAME
	?GetMonthRange@CMonthCalCtrl@@QBAHPAU_SYSTEMTIME@@0K@Z @ 909 NONAME
	?GetNaturalExtent@XViewObject@COleControl@@UAAJKJPAUtagDVTARGETDEVICE@@PAUHDC__@@PAUtagExtentInfo@@PAUtagSIZE@@@Z @ 910 NONAME
	?GetNextConnection@CConnectionPoint@@QBAPAUIUnknown@@AAPAU__POSITION@@@Z @ 911 NONAME
	?GetNotSupported@CCmdTarget@@QAAXXZ @ 912 NONAME
	?GetNotSupported@COleControl@@QAAXXZ @ 913 NONAME
	?GetObjectArray@COlePropertyPage@@QAAPAPAUIDispatch@@PAK@Z @ 914 NONAME
	?GetOneDimSize@COleSafeArray@@QAAKXZ @ 915 NONAME
	?GetOSVersion@CPropertySet@@QAAKXZ @ 916 NONAME
	?GetOuterWindow@COleControl@@IBAPAVCWnd@@XZ @ 917 NONAME
	?GetPageInfo@XPropertyPage@COlePropertyPage@@UAAJPAUtagPROPPAGEINFO@@@Z @ 918 NONAME
	?GetPages@XSpecifyPropertyPages@COleControl@@UAAJPAUtagCAUUID@@@Z @ 919 NONAME
	?GetPageSite@COlePropertyPage@@QAAPAUIPropertyPageSite@@XZ @ 920 NONAME
	?GetPosition@COleStreamFile@@UBAKXZ @ 921 NONAME
	?GetPredefinedStrings@XPerPropertyBrowsing@COleControl@@UAAJJPAUtagCALPOLESTR@@PAUtagCADWORD@@@Z @ 922 NONAME
	?GetPredefinedValue@XPerPropertyBrowsing@COleControl@@UAAJJKPAUtagVARIANT@@@Z @ 923 NONAME
	?GetPropCheck@COlePropertyPage@@QAAHPBGPAH@Z @ 924 NONAME
	?GetProperty@COleControlSite@@UBAXJGPAX@Z @ 925 NONAME
	?GetProperty@COleDispatchDriver@@QBAXJGPAX@Z @ 926 NONAME
	?GetProperty@CPropertySection@@QAAPAVCProperty@@K@Z @ 927 NONAME
	?GetProperty@CPropertySet@@QAAPAVCProperty@@U_GUID@@K@Z @ 928 NONAME
	?GetPropIndex@COlePropertyPage@@QAAHPBGPAH@Z @ 929 NONAME
	?GetPropPageIDs@COleControl@@MAAPAU_GUID@@AAK@Z @ 930 NONAME
	?GetPropRadio@COlePropertyPage@@QAAHPBGPAH@Z @ 931 NONAME
	?GetPropsetData@COleControl@@IAAHPAUtagFORMATETC@@PAUtagSTGMEDIUM@@ABU_GUID@@@Z @ 932 NONAME
	?GetPropText@COlePropertyPage@@QAAHPBGPAE@Z @ 933 NONAME
	?GetPropText@COlePropertyPage@@QAAHPBGPAF@Z @ 934 NONAME
	?GetPropText@COlePropertyPage@@QAAHPBGPAH@Z @ 935 NONAME
	?GetPropText@COlePropertyPage@@QAAHPBGPAI@Z @ 936 NONAME
	?GetPropText@COlePropertyPage@@QAAHPBGPAJ@Z @ 937 NONAME
	?GetPropText@COlePropertyPage@@QAAHPBGPAK@Z @ 938 NONAME
	?GetPropText@COlePropertyPage@@QAAHPBGPAM@Z @ 939 NONAME
	?GetPropText@COlePropertyPage@@QAAHPBGPAN@Z @ 940 NONAME
	?GetPropText@COlePropertyPage@@QAAHPBGPAVCString@@@Z @ 941 NONAME
	?GetRange@CDateTimeCtrl@@QBAKPAVCOleDateTime@@0@Z @ 942 NONAME
	?GetRange@CDateTimeCtrl@@QBAKPAVCTime@@0@Z @ 943 NONAME
	?GetRange@CMonthCalCtrl@@QBAKPAU_SYSTEMTIME@@0@Z @ 944 NONAME
	?GetRange@CMonthCalCtrl@@QBAKPAVCOleDateTime@@0@Z @ 945 NONAME
	?GetRange@CMonthCalCtrl@@QBAKPAVCTime@@0@Z @ 946 NONAME
	?GetRawValue@CProperty@@QAAPAXXZ @ 947 NONAME
	?GetReadyState@COleControl@@QAAJXZ @ 948 NONAME
	?GetRect@XViewObject@COleControl@@UAAJKPAU_RECTL@@@Z @ 949 NONAME
	?GetRectInContainer@COleControl@@QAAHPAUtagRECT@@@Z @ 950 NONAME
	?GetRuntimeClass@CDateTimeCtrl@@UBAPAUCRuntimeClass@@XZ @ 951 NONAME
	?GetRuntimeClass@CMonthCalCtrl@@UBAPAUCRuntimeClass@@XZ @ 952 NONAME
	?GetRuntimeClass@COleControl@@UBAPAUCRuntimeClass@@XZ @ 953 NONAME
	?GetRuntimeClass@COleControlModule@@UBAPAUCRuntimeClass@@XZ @ 954 NONAME
	?GetRuntimeClass@COleDispatchException@@UBAPAUCRuntimeClass@@XZ @ 955 NONAME
	?GetRuntimeClass@COleException@@UBAPAUCRuntimeClass@@XZ @ 956 NONAME
	?GetRuntimeClass@COleObjectFactory@@UBAPAUCRuntimeClass@@XZ @ 957 NONAME
	?GetRuntimeClass@COlePropertyPage@@UBAPAUCRuntimeClass@@XZ @ 958 NONAME
	?GetRuntimeClass@COleStreamFile@@UBAPAUCRuntimeClass@@XZ @ 959 NONAME
	?GetRuntimeClass@CWindowlessDC@@UBAPAUCRuntimeClass@@XZ @ 960 NONAME
	?GetSecond@COleDateTime@@QBAHXZ @ 961 NONAME
	?GetSeconds@COleDateTimeSpan@@QBAJXZ @ 962 NONAME
	?GetSection@CPropertySet@@QAAPAVCPropertySection@@U_GUID@@@Z @ 963 NONAME
	?GetSectionName@CPropertySection@@QAAPBGXZ @ 964 NONAME
	?GetSelRange@CMonthCalCtrl@@QBAHAAVCOleDateTime@@0@Z @ 965 NONAME
	?GetSelRange@CMonthCalCtrl@@QBAHAAVCTime@@0@Z @ 966 NONAME
	?GetSelRange@CMonthCalCtrl@@QBAHPAU_SYSTEMTIME@@0@Z @ 967 NONAME
	?GetSize@CPropertySection@@QAAKXZ @ 968 NONAME
	?GetSizeMax@CBlobProperty@@UAAJPAT_ULARGE_INTEGER@@@Z @ 969 NONAME
	?GetSizeMax@CCeFont@@UAAJPAT_ULARGE_INTEGER@@@Z @ 970 NONAME
	?GetSizeMax@CCeFont@@W3AAJPAT_ULARGE_INTEGER@@@Z @ 971 NONAME
	?GetSizeMax@XPersistMemory@COleControl@@UAAJPAK@Z @ 972 NONAME
	?GetSizeMax@XPersistStreamInit@COleControl@@UAAJPAT_ULARGE_INTEGER@@@Z @ 973 NONAME
	?GetStackSize@CCmdTarget@@KAIPBEG@Z @ 974 NONAME
	?GetStandardProp@CCmdTarget@@IAAXPBUAFX_DISPMAP_ENTRY@@PAUtagVARIANT@@PAI@Z @ 975 NONAME
	?GetStartPosition@CConnectionPoint@@QBAPAU__POSITION@@XZ @ 976 NONAME
	?GetStatus@COleStreamFile@@QBAHAAUCFileStatus@@@Z @ 977 NONAME
	?GetStockTextMetrics@COleControl@@QAAXPAUtagTEXTMETRICW@@@Z @ 978 NONAME
	?GetStorageName@COleStreamFile@@UBA?BVCString@@XZ @ 979 NONAME
	?GetStream@COleStreamFile@@QBAPAUIStream@@XZ @ 980 NONAME
	?GetStyle@COleControlSite@@UBAKXZ @ 981 NONAME
	?GetText@COleControl@@QAAPAGXZ @ 982 NONAME
	?GetTime@CDateTimeCtrl@@QBAHAAVCOleDateTime@@@Z @ 983 NONAME
	?GetTime@CDateTimeCtrl@@QBAKAAVCTime@@@Z @ 984 NONAME
	?GetToday@CMonthCalCtrl@@QBAHAAVCOleDateTime@@@Z @ 985 NONAME
	?GetToday@CMonthCalCtrl@@QBAHAAVCTime@@@Z @ 986 NONAME
	?GetType@CProperty@@QAAKXZ @ 987 NONAME
	?GetTypeInfo@CCeFont@@UAAJIKPAPAUITypeInfo@@@Z @ 988 NONAME
	?GetTypeInfo@COleDispatchImpl@@UAAJIKPAPAUITypeInfo@@@Z @ 989 NONAME
	?GetTypeInfo@XAmbientProps@COleControlSite@@UAAJIKPAPAUITypeInfo@@@Z @ 990 NONAME
	?GetTypeInfo@XEventSink@COleControlSite@@UAAJIKPAPAUITypeInfo@@@Z @ 991 NONAME
	?GetTypeInfoCount@CCeFont@@UAAJPAI@Z @ 992 NONAME
	?GetTypeInfoCount@COleDispatchImpl@@UAAJPAI@Z @ 993 NONAME
	?GetTypeInfoCount@XAmbientProps@COleControlSite@@UAAJPAI@Z @ 994 NONAME
	?GetTypeInfoCount@XEventSink@COleControlSite@@UAAJPAI@Z @ 995 NONAME
	?GetTypeInfoOfGuid@CCmdTarget@@QAAJKABU_GUID@@PAPAUITypeInfo@@@Z @ 996 NONAME
	?GetUBound@COleSafeArray@@QAAXKPAJ@Z @ 997 NONAME
	?GetUserClassID@XOleObject@COleControl@@UAAJPAU_GUID@@@Z @ 998 NONAME
	?GetUserType@COleControl@@IAAXPAG@Z @ 999 NONAME
	?GetUserType@XOleObject@COleControl@@UAAJKPAPAG@Z @ 1000 NONAME
	?GetViewStatus@XViewObject@COleControl@@UAAJPAK@Z @ 1002 NONAME
	?GetWindow@XOleInPlaceActiveObject@COleControl@@UAAJPAPAUHWND__@@@Z @ 1003 NONAME
	?GetWindow@XOleInPlaceObject@COleControl@@UAAJPAPAUHWND__@@@Z @ 1004 NONAME
	?GetWindow@XOleIPFrame@COleControlContainer@@UAAJPAPAUHWND__@@@Z @ 1005 NONAME
	?GetWindow@XOleIPSite@COleControlSite@@UAAJPAPAUHWND__@@@Z @ 1006 NONAME
	?GetWindowContext@XOleIPSite@COleControlSite@@UAAJPAPAUIOleInPlaceFrame@@PAPAUIOleInPlaceUIWindow@@PAUtagRECT@@2PAUtagOIFI@@@Z @ 1007 NONAME
	?GetWindowlessDropTarget@COleControl@@UAAPAUIDropTarget@@XZ @ 1008 NONAME
	?GetWindowTextLengthW@COleControlSite@@UBAHXZ @ 1009 NONAME
	?GetWindowTextW@COleControlSite@@UBAHPAGH@Z @ 1010 NONAME
	?GetWindowTextW@COleControlSite@@UBAXAAVCString@@@Z @ 1011 NONAME
	?GetYear@COleDateTime@@QBAHXZ @ 1012 NONAME
	?HandsOffStorage@XPersistStorage@COleControl@@UAAJXZ @ 1013 NONAME
	?Help@XPropertyPage@COlePropertyPage@@UAAJPBG@Z @ 1015 NONAME
	?IgnoreApply@COlePropertyPage@@QAAXI@Z @ 1016 NONAME
	?IgnoreWindowMessage@COleControl@@IAAHIIJPAJ@Z @ 1017 NONAME
	?InitControlContainer@CWnd@@IAAHXZ @ 1018 NONAME
	?InitFontObject@CCeFont@@SAJXZ @ 1019 NONAME
	?InitFromData@XOleObject@COleControl@@UAAJPAUIDataObject@@HK@Z @ 1020 NONAME
	?InitializeFont@CFontHolder@@QAAXPBUtagFONTDESC@@PAUIDispatch@@@Z @ 1021 NONAME
	?InitializeIIDs@COleControl@@QAAXPBU_GUID@@0@Z @ 1022 NONAME
	?InitInstance@COleControlModule@@UAAHXZ @ 1023 NONAME
	?InitNew@CCeFont@@UAAJXZ @ 1024 NONAME
	?InitNew@CCeFont@@W3AAJXZ @ 1025 NONAME
	?InitNew@XPersistMemory@COleControl@@UAAJXZ @ 1026 NONAME
	?InitNew@XPersistPropertyBag@COleControl@@UAAJXZ @ 1027 NONAME
	?InitNew@XPersistStorage@COleControl@@UAAJPAUIStorage@@@Z @ 1028 NONAME
	?InitNew@XPersistStreamInit@COleControl@@UAAJXZ @ 1029 NONAME
	?InitStockEventMask@COleControl@@IAAXXZ @ 1030 NONAME
	?InitStockPropMask@COleControl@@IAAXXZ @ 1031 NONAME
	?InPlaceDeactivate@XOleInPlaceObject@COleControl@@UAAJXZ @ 1032 NONAME
	?InsertMenus@XOleIPFrame@COleControlContainer@@UAAJPAUHMENU__@@PAUtagOleMenuGroupWidths@@@Z @ 1033 NONAME
	?InternalAddRef@CUnknown@@UAAKXZ @ 1034 NONAME
	?InternalGetFont@COleControl@@QAAAAVCFontHolder@@XZ @ 1035 NONAME
	?InternalGetText@COleControl@@QAAABVCString@@XZ @ 1036 NONAME
	?InternalQueryInterface@CCeFont@@UAAJABU_GUID@@PAPAX@Z @ 1037 NONAME
	?InternalQueryInterface@CCmdTarget@@QAAKPBXPAPAX@Z @ 1038 NONAME
	?InternalQueryInterface@CUnknown@@UAAJABU_GUID@@PAPAX@Z @ 1039 NONAME
	?InternalRelease@CCmdTarget@@QAAKXZ @ 1040 NONAME
	?InternalRelease@CUnknown@@UAAKXZ @ 1041 NONAME
	?InvalidateControl@COleControl@@QAAXPBUtagRECT@@H@Z @ 1042 NONAME
	?InvalidateRgn@COleControl@@QAAXPAVCRgn@@H@Z @ 1043 NONAME
	?Invoke@CCeFont@@UAAJJABU_GUID@@KGPAUtagDISPPARAMS@@PAUtagVARIANT@@PAUtagEXCEPINFO@@PAI@Z @ 1044 NONAME
	?Invoke@COleDispatchImpl@@UAAJJABU_GUID@@KGPAUtagDISPPARAMS@@PAUtagVARIANT@@PAUtagEXCEPINFO@@PAI@Z @ 1045 NONAME
	?Invoke@XAmbientProps@COleControlSite@@UAAJJABU_GUID@@KGPAUtagDISPPARAMS@@PAUtagVARIANT@@PAUtagEXCEPINFO@@PAI@Z @ 1046 NONAME
	?Invoke@XEventSink@COleControlSite@@UAAJJABU_GUID@@KGPAUtagDISPPARAMS@@PAUtagVARIANT@@PAUtagEXCEPINFO@@PAI@Z @ 1047 NONAME
	?InvokeHelper@COleControlSite@@UAAXJGGPAXPBEZZ @ 1048 NONAME
	?InvokeHelper@COleDispatchDriver@@QAAXJGGPAXPBEZZ @ 1049 NONAME
	?InvokeHelperV@COleControlSite@@UAAXJGGPAXPBEPAD@Z @ 1050 NONAME
	?InvokeHelperV@COleDispatchDriver@@QAAXJGGPAXPBEPAD@Z @ 1051 NONAME
	?IsDefaultButton@COleControlSite@@QAAHXZ @ 1052 NONAME
	?IsDialogMessageW@COccManager@@UAAHPAVCWnd@@PAUtagMSG@@@Z @ 1053 NONAME
	?IsDirty@CBlobProperty@@UAAJXZ @ 1054 NONAME
	?IsDirty@CCeFont@@UAAJXZ @ 1055 NONAME
	?IsDirty@CCeFont@@W3AAJXZ @ 1056 NONAME
	?IsDirty@XPersistMemory@COleControl@@UAAJXZ @ 1057 NONAME
	?IsDirty@XPersistStorage@COleControl@@UAAJXZ @ 1058 NONAME
	?IsDirty@XPersistStreamInit@COleControl@@UAAJXZ @ 1059 NONAME
	?IsDlgButtonChecked@COleControlContainer@@UBAIH@Z @ 1060 NONAME
	?IsEqual@CCeFont@@UAAJPAUIFont@@@Z @ 1061 NONAME
	?IsInvokeAllowed@COleControl@@MAAHJ@Z @ 1062 NONAME
	?IsLabelControl@COccManager@@SAHPAVCWnd@@@Z @ 1063 NONAME
	?IsLicenseValid@COleObjectFactory@@QAAHXZ @ 1064 NONAME
	?IsMatchingMnemonic@COccManager@@SAHPAVCWnd@@PAUtagMSG@@@Z @ 1065 NONAME
	?IsMatchingMnemonic@COleControlSite@@QAAHPAUtagMSG@@@Z @ 1066 NONAME
	?IsModified@COleControl@@QAAHXZ @ 1067 NONAME
	?IsModified@COlePropertyPage@@QAAHXZ @ 1068 NONAME
	?IsPageDirty@XPropertyPage@COlePropertyPage@@UAAJXZ @ 1069 NONAME
	?IsRegistered@COleObjectFactory@@UBAHXZ @ 1070 NONAME
	?IsResultExpected@CCmdTarget@@QAAHXZ @ 1071 NONAME
	?IsSubclassedControl@COleControl@@UAAHXZ @ 1072 NONAME
	?IsUpToDate@XOleObject@COleControl@@UAAJXZ @ 1073 NONAME
	?IsWindowEnabled@COleControlSite@@UBAHXZ @ 1074 NONAME
	?KeyDown@COleControl@@IAAXPAG@Z @ 1075 NONAME
	?KeyUp@COleControl@@IAAXPAG@Z @ 1076 NONAME
	?Load@CBlobProperty@@UAAJPAUIStream@@@Z @ 1077 NONAME
	?Load@CCeFont@@UAAJPAUIPropertyBag@@PAUIErrorLog@@@Z @ 1078 NONAME
	?Load@CCeFont@@UAAJPAUIStream@@@Z @ 1079 NONAME
	?Load@CCeFont@@W3AAJPAUIStream@@@Z @ 1080 NONAME
	?Load@CStreamImp@@QAAJPAX@Z @ 1081 NONAME
	?Load@XPersistMemory@COleControl@@UAAJPAXK@Z @ 1082 NONAME
	?Load@XPersistPropertyBag@COleControl@@UAAJPAUIPropertyBag@@PAUIErrorLog@@@Z @ 1083 NONAME
	?Load@XPersistStorage@COleControl@@UAAJPAUIStorage@@@Z @ 1084 NONAME
	?Load@XPersistStreamInit@COleControl@@UAAJPAUIStream@@@Z @ 1085 NONAME
	?LoadState@COleControl@@IAAJPAUIStream@@@Z @ 1086 NONAME
	?Lock@COleSafeArray@@QAAXXZ @ 1087 NONAME
	?Lock@CTypeLibCache@@QAAXXZ @ 1088 NONAME
	?Lock@CUnknown@@UAAXXZ @ 1089 NONAME
	?LockContainer@XOleContainer@COleControlContainer@@UAAJH@Z @ 1090 NONAME
	?LockInPlaceActive@COleControl@@QAAHH@Z @ 1091 NONAME
	?LockInPlaceActive@XOleControlSite@COleControlSite@@UAAJH@Z @ 1092 NONAME
	?LockRange@COleStreamFile@@UAAXKK@Z @ 1093 NONAME
	?LockRegion@CStreamImp@@UAAJT_ULARGE_INTEGER@@0K@Z @ 1094 NONAME
	?LockServer@XClassFactory@COleObjectFactory@@UAAJH@Z @ 1095 NONAME
	?Lookup@COleDataSource@@IBAPAUAFX_DATACACHE_ENTRY@@PAUtagFORMATETC@@W4tagDATADIR@@@Z @ 1096 NONAME
	?Lookup@CTypeLibCache@@QAAHKPAPAUITypeLib@@@Z @ 1097 NONAME
	?LookupTypeInfo@CTypeLibCache@@QAAHKABU_GUID@@PAPAUITypeInfo@@@Z @ 1098 NONAME
	?MapPropertyToPage@XPerPropertyBrowsing@COleControl@@UAAJJPAU_GUID@@@Z @ 1099 NONAME
	?MemberIDFromName@CCmdTarget@@KAJPBUAFX_DISPMAP@@PBG@Z @ 1100 NONAME
	?MessageBoxW@COlePropertyPage@@QAAHPBG0I@Z @ 1101 NONAME
	?ModifyStyle@COleControlSite@@UAAHKKI@Z @ 1102 NONAME
	?ModifyStyleEx@COleControlSite@@UAAHKKI@Z @ 1103 NONAME
	?Move@XPropertyPage@COlePropertyPage@@UAAJPBUtagRECT@@@Z @ 1104 NONAME
	?MoveWindow@COleControlSite@@UAAXHHHHH@Z @ 1105 NONAME
	?NewFcr@CCeFont@@QAAJPAH@Z @ 1106 NONAME
	?Next@XEnumVOID@CEnumArray@@UAAJKPAXPAK@Z @ 1107 NONAME
	?OnActivate@CControlFrameWnd@@IAAXIPAVCWnd@@H@Z @ 1108 NONAME
	?OnActivateInPlace@COleControl@@MAAJHPAUtagMSG@@@Z @ 1109 NONAME
	?OnAdvise@CConnectionPoint@@UAAXH@Z @ 1110 NONAME
	?OnAdvise@XEventConnPt@COleControl@@UAAXH@Z @ 1111 NONAME
	?OnAmbientPropertyChange@COleControl@@UAAXJ@Z @ 1112 NONAME
	?OnAmbientPropertyChange@XOleControl@COleControl@@UAAJJ@Z @ 1113 NONAME
	?OnAppearanceChanged@COleControl@@UAAXXZ @ 1114 NONAME
	?OnBackColorChanged@COleControl@@UAAXXZ @ 1115 NONAME
	?OnBorderStyleChanged@COleControl@@UAAXXZ @ 1116 NONAME
	?OnButtonDblClk@COleControl@@IAAXGIVCPoint@@@Z @ 1117 NONAME
	?OnButtonDown@COleControl@@IAAXGIVCPoint@@@Z @ 1118 NONAME
	?OnButtonUp@COleControl@@IAAXGIVCPoint@@@Z @ 1119 NONAME
	?OnCancelMode@COleControl@@IAAXXZ @ 1120 NONAME
	?OnChanged@XFontNotification@COleControl@@UAAJJ@Z @ 1121 NONAME
	?OnChanged@XPropertyNotifySink@COleControlSite@@UAAJJ@Z @ 1122 NONAME
	?OnChanged@XPropNotifySink@COlePropertyPage@@UAAJJ@Z @ 1123 NONAME
	?OnChar@COleControl@@IAAXIII@Z @ 1124 NONAME
	?OnClick@COleControl@@UAAXG@Z @ 1125 NONAME
	?OnClone@CEnumArray@@MAAPAV1@XZ @ 1126 NONAME
	?OnClone@CEnumConnections@@MAAPAVCEnumArray@@XZ @ 1127 NONAME
	?OnClose@CControlFrameWnd@@IAAXXZ @ 1128 NONAME
	?OnClose@COleControl@@UAAXK@Z @ 1129 NONAME
	?OnCommand@COlePropertyPage@@MAAHIJ@Z @ 1130 NONAME
	?OnControlInfoChanged@XOleControlSite@COleControlSite@@UAAJXZ @ 1131 NONAME
	?OnCreate@COleControl@@IAAHPAUtagCREATESTRUCTW@@@Z @ 1132 NONAME
	?OnCreateAggregates@COleControl@@MAAHXZ @ 1133 NONAME
	?OnCreateObject@COleObjectFactory@@MAAPAVCCmdTarget@@XZ @ 1134 NONAME
	?OnCtlColor@COlePropertyPage@@IAAPAUHBRUSH__@@PAVCDC@@PAVCWnd@@I@Z @ 1135 NONAME
	?OnDestroy@COleControl@@IAAXXZ @ 1136 NONAME
	?OnDocWindowActivate@XOleInPlaceActiveObject@COleControl@@UAAJH@Z @ 1137 NONAME
	?OnDoVerb@COleControl@@UAAHJPAUtagMSG@@PAUHWND__@@PBUtagRECT@@@Z @ 1138 NONAME
	?OnDraw@COleControl@@UAAXPAVCDC@@ABVCRect@@1@Z @ 1139 NONAME
	?OnDrawMetafile@COleControl@@UAAXPAVCDC@@ABVCRect@@@Z @ 1140 NONAME
	?OnEdit@COleControl@@UAAHPAUtagMSG@@PAUHWND__@@PBUtagRECT@@@Z @ 1141 NONAME
	?OnEditProperty@COlePropertyPage@@UAAHJ@Z @ 1142 NONAME
	?OnEnabledChanged@COleControl@@UAAXXZ @ 1143 NONAME
	?OnEnterIdle@COleControl@@IAAXIPAVCWnd@@@Z @ 1144 NONAME
	?OnEnumVerbs@COleControl@@UAAHPAPAUIEnumOLEVERB@@@Z @ 1145 NONAME
	?OnEraseBkgnd@COleControl@@IAAHPAVCDC@@@Z @ 1146 NONAME
	?OnEvent@CCmdTarget@@QAAHIPAUAFX_EVENT@@PAUAFX_CMDHANDLERINFO@@@Z @ 1147 NONAME
	?OnEvent@COccManager@@UAAHPAVCCmdTarget@@IPAUAFX_EVENT@@PAUAFX_CMDHANDLERINFO@@@Z @ 1148 NONAME
	?OnEvent@COleControlSite@@IAAHPAUAFX_EVENT@@@Z @ 1149 NONAME
	?OnEventAdvise@COleControl@@UAAXH@Z @ 1150 NONAME
	?OnFinalRelease@COleControl@@MAAXXZ @ 1151 NONAME
	?OnFinalRelease@COlePropertyPage@@MAAXXZ @ 1152 NONAME
	?OnFocus@XOleControlSite@COleControlSite@@UAAJH@Z @ 1153 NONAME
	?OnFontChanged@COleControl@@UAAXXZ @ 1154 NONAME
	?OnForeColorChanged@COleControl@@UAAXXZ @ 1155 NONAME
	?OnFrameClose@COleControl@@MAAXXZ @ 1156 NONAME
	?OnFrameWindowActivate@XOleInPlaceActiveObject@COleControl@@UAAJH@Z @ 1157 NONAME
	?OnFreezeEvents@COleControl@@UAAXH@Z @ 1158 NONAME
	?OnGetColorSet@COleControl@@UAAHPAUtagDVTARGETDEVICE@@PAUHDC__@@PAPAUtagLOGPALETTE@@@Z @ 1159 NONAME
	?OnGetControlInfo@COleControl@@UAAXPAUtagCONTROLINFO@@@Z @ 1160 NONAME
	?OnGetDisplayString@COleControl@@UAAHJAAVCString@@@Z @ 1161 NONAME
	?OnGetDlgCode@COleControl@@IAAIXZ @ 1162 NONAME
	?OnGetNaturalExtent@COleControl@@UAAHKJPAUtagDVTARGETDEVICE@@PAUHDC__@@PAUtagExtentInfo@@PAUtagSIZE@@@Z @ 1163 NONAME
	?OnGetPredefinedStrings@COleControl@@UAAHJPAVCStringArray@@PAVCDWordArray@@@Z @ 1164 NONAME
	?OnGetPredefinedValue@COleControl@@UAAHJKPAUtagVARIANT@@@Z @ 1165 NONAME
	?OnGetViewExtent@COleControl@@UAAHKJPAUtagDVTARGETDEVICE@@PAUtagSIZE@@@Z @ 1166 NONAME
	?OnGetViewRect@COleControl@@UAAHKPAU_RECTL@@@Z @ 1167 NONAME
	?OnGetViewStatus@COleControl@@UAAKXZ @ 1168 NONAME
	?OnHelp@COlePropertyPage@@UAAHPBG@Z @ 1169 NONAME
	?OnHide@COleControl@@MAAJXZ @ 1170 NONAME
	?OnInactiveMouseMove@COleControl@@UAAXPBUtagRECT@@JJK@Z @ 1171 NONAME
	?OnInactiveMouseMove@XPointerInactive@COleControl@@UAAJPBUtagRECT@@JJK@Z @ 1172 NONAME
	?OnInactiveSetCursor@COleControl@@UAAHPBUtagRECT@@JJKH@Z @ 1173 NONAME
	?OnInactiveSetCursor@XPointerInactive@COleControl@@UAAJPBUtagRECT@@JJKH@Z @ 1174 NONAME
	?OnInitDialog@COlePropertyPage@@UAAHXZ @ 1175 NONAME
	?OnInitMenuPopup@COleControl@@IAAXPAVCMenu@@IH@Z @ 1176 NONAME
	?OnInPlaceActivate@XOleIPSite@COleControlSite@@UAAJXZ @ 1177 NONAME
	?OnInPlaceDeactivate@XOleIPSite@COleControlSite@@UAAJXZ @ 1178 NONAME
	?OnKeyDown@COleControl@@IAAXIII@Z @ 1179 NONAME
	?OnKeyDownEvent@COleControl@@UAAXGG@Z @ 1180 NONAME
	?OnKeyPressEvent@COleControl@@UAAXG@Z @ 1181 NONAME
	?OnKeyUp@COleControl@@IAAXIII@Z @ 1182 NONAME
	?OnKeyUpEvent@COleControl@@UAAXGG@Z @ 1183 NONAME
	?OnKillFocus@COleControl@@IAAXPAVCWnd@@@Z @ 1184 NONAME
	?OnLButtonDblClk@COleControl@@IAAXIVCPoint@@@Z @ 1185 NONAME
	?OnLButtonDown@COleControl@@IAAXIVCPoint@@@Z @ 1186 NONAME
	?OnLButtonUp@COleControl@@IAAXIVCPoint@@@Z @ 1187 NONAME
	?OnMapPropertyToPage@COleControl@@UAAHJPAU_GUID@@PAH@Z @ 1188 NONAME
	?OnMButtonDblClk@COleControl@@IAAXIVCPoint@@@Z @ 1189 NONAME
	?OnMButtonDown@COleControl@@IAAXIVCPoint@@@Z @ 1190 NONAME
	?OnMButtonUp@COleControl@@IAAXIVCPoint@@@Z @ 1191 NONAME
	?OnMenuSelect@COleControl@@IAAXIIPAUHMENU__@@@Z @ 1192 NONAME
	?OnMnemonic@COleControl@@UAAXPAUtagMSG@@@Z @ 1193 NONAME
	?OnMnemonic@XOleControl@COleControl@@UAAJPAUtagMSG@@@Z @ 1194 NONAME
	?OnMouseMove@COleControl@@IAAXIVCPoint@@@Z @ 1195 NONAME
	?OnMove@COleControl@@IAAXHH@Z @ 1196 NONAME
	?OnNext@CEnumArray@@MAAHPAX@Z @ 1197 NONAME
	?OnNext@CEnumConnections@@MAAHPAX@Z @ 1198 NONAME
	?OnNext@CEnumConnPoints@@MAAHPAX@Z @ 1199 NONAME
	?OnNext@CEnumOleVerb@@MAAHPAX@Z @ 1200 NONAME
	?OnNext@CEnumUnknown@@MAAHPAX@Z @ 1201 NONAME
	?OnObjectsChanged@COlePropertyPage@@UAAXXZ @ 1202 NONAME
	?OnOcmCtlColorBtn@COleControl@@IAAJIJ@Z @ 1203 NONAME
	?OnOcmCtlColorDlg@COleControl@@IAAJIJ@Z @ 1204 NONAME
	?OnOcmCtlColorEdit@COleControl@@IAAJIJ@Z @ 1205 NONAME
	?OnOcmCtlColorListBox@COleControl@@IAAJIJ@Z @ 1206 NONAME
	?OnOcmCtlColorMsgBox@COleControl@@IAAJIJ@Z @ 1207 NONAME
	?OnOcmCtlColorScrollBar@COleControl@@IAAJIJ@Z @ 1208 NONAME
	?OnOcmCtlColorStatic@COleControl@@IAAJIJ@Z @ 1209 NONAME
	?OnOpen@COleControl@@MAAJHPAUtagMSG@@@Z @ 1210 NONAME
	?OnPaint@COleControl@@IAAXPAVCDC@@@Z @ 1211 NONAME
	?OnPosRectChange@XOleIPSite@COleControlSite@@UAAJPBUtagRECT@@@Z @ 1212 NONAME
	?OnProperties@COleControl@@UAAHPAUtagMSG@@PAUHWND__@@PBUtagRECT@@@Z @ 1213 NONAME
	?OnQueryHitPoint@COleControl@@UAAHKPBUtagRECT@@UtagPOINT@@JPAK@Z @ 1214 NONAME
	?OnQueryHitRect@COleControl@@UAAHKPBUtagRECT@@0JPAK@Z @ 1215 NONAME
	?OnRButtonDblClk@COleControl@@IAAXIVCPoint@@@Z @ 1216 NONAME
	?OnRButtonDown@COleControl@@IAAXIVCPoint@@@Z @ 1217 NONAME
	?OnRButtonUp@COleControl@@IAAXIVCPoint@@@Z @ 1218 NONAME
	?OnReflectorDestroyed@COleControl@@MAAXXZ @ 1219 NONAME
	?OnRenderData@CControlDataSource@COleControl@@MAAHPAUtagFORMATETC@@PAUtagSTGMEDIUM@@@Z @ 1220 NONAME
	?OnRenderData@COleControl@@UAAHPAUtagFORMATETC@@PAUtagSTGMEDIUM@@@Z @ 1221 NONAME
	?OnRenderData@COleDataSource@@UAAHPAUtagFORMATETC@@PAUtagSTGMEDIUM@@@Z @ 1222 NONAME
	?OnRenderFileData@CControlDataSource@COleControl@@MAAHPAUtagFORMATETC@@PAVCFile@@@Z @ 1223 NONAME
	?OnRenderFileData@COleControl@@UAAHPAUtagFORMATETC@@PAVCFile@@@Z @ 1224 NONAME
	?OnRenderFileData@COleDataSource@@UAAHPAUtagFORMATETC@@PAVCFile@@@Z @ 1225 NONAME
	?OnRenderGlobalData@CControlDataSource@COleControl@@MAAHPAUtagFORMATETC@@PAPAX@Z @ 1226 NONAME
	?OnRenderGlobalData@COleControl@@UAAHPAUtagFORMATETC@@PAPAX@Z @ 1227 NONAME
	?OnRenderGlobalData@COleDataSource@@UAAHPAUtagFORMATETC@@PAPAX@Z @ 1228 NONAME
	?OnRequestEdit@XFontNotification@COleControl@@UAAJJ@Z @ 1229 NONAME
	?OnRequestEdit@XPropertyNotifySink@COleControlSite@@UAAJJ@Z @ 1230 NONAME
	?OnRequestEdit@XPropNotifySink@COlePropertyPage@@UAAJJ@Z @ 1231 NONAME
	?OnReset@CEnumArray@@MAAXXZ @ 1232 NONAME
	?OnResetState@COleControl@@UAAXXZ @ 1233 NONAME
	?OnSetClientSite@COleControl@@UAAXXZ @ 1234 NONAME
	?OnSetCursor@COleControl@@IAAHPAVCWnd@@II@Z @ 1235 NONAME
	?OnSetData@CControlDataSource@COleControl@@MAAHPAUtagFORMATETC@@PAUtagSTGMEDIUM@@H@Z @ 1236 NONAME
	?OnSetData@COleControl@@UAAHPAUtagFORMATETC@@PAUtagSTGMEDIUM@@H@Z @ 1237 NONAME
	?OnSetData@COleDataSource@@UAAHPAUtagFORMATETC@@PAUtagSTGMEDIUM@@H@Z @ 1238 NONAME
	?OnSetExtent@COleControl@@UAAHPAUtagSIZE@@@Z @ 1239 NONAME
	?OnSetFocus@COleControl@@IAAXPAVCWnd@@@Z @ 1240 NONAME
	?OnSetMessageString@COleControl@@IAAJIJ@Z @ 1241 NONAME
	?OnSetObjectRects@COleControl@@UAAHPBUtagRECT@@0@Z @ 1242 NONAME
	?OnSetPageSite@COlePropertyPage@@UAAXXZ @ 1243 NONAME
	?OnSetText@COleControl@@IAAJIJ@Z @ 1244 NONAME
	?OnShowWindow@COleControl@@IAAXHI@Z @ 1245 NONAME
	?OnShowWindow@XOleClientSite@COleControlSite@@UAAJH@Z @ 1246 NONAME
	?OnSize@COleControl@@IAAXIHH@Z @ 1247 NONAME
	?OnSkip@CEnumArray@@MAAHXZ @ 1248 NONAME
	?OnSysKeyDown@COleControl@@IAAXIII@Z @ 1249 NONAME
	?OnSysKeyUp@COleControl@@IAAXIII@Z @ 1250 NONAME
	?OnTextChanged@COleControl@@UAAXXZ @ 1251 NONAME
	?OnUIActivate@COleControlContainer@@UAAXPAVCOleControlSite@@@Z @ 1252 NONAME
	?OnUIActivate@XOleIPSite@COleControlSite@@UAAJXZ @ 1253 NONAME
	?OnUIDeactivate@COleControlContainer@@UAAXPAVCOleControlSite@@@Z @ 1254 NONAME
	?OnUIDeactivate@XOleIPSite@COleControlSite@@UAAJH@Z @ 1255 NONAME
	?OnWindowlessMessage@COleControl@@UAAHIIJPAJ@Z @ 1256 NONAME
	?OnWindowMessage@XOleInPlaceObject@COleControl@@UAAJIIJPAJ@Z @ 1257 NONAME
	?OpenStream@COleStreamFile@@QAAHPAUIStorage@@PBGKPAVCFileException@@@Z @ 1258 NONAME
	?ParentToClient@COleControl@@UBAIPBUtagRECT@@PAUtagPOINT@@H@Z @ 1259 NONAME
	?ParseCurrency@COleCurrency@@QAAHPBGKK@Z @ 1260 NONAME
	?ParseDateTime@COleDateTime@@QAAHPBGKK@Z @ 1261 NONAME
	?ParseDisplayName@XOleContainer@COleControlContainer@@UAAJPAUIBindCtx@@PAGPAKPAPAUIMoniker@@@Z @ 1262 NONAME
	?PostCreateDialog@COccManager@@UAAXPAU_AFX_OCC_DIALOG_INFO@@@Z @ 1263 NONAME
	?PostModalDialog@COleControl@@QAAXPAUHWND__@@@Z @ 1264 NONAME
	?PostNcDestroy@CControlFrameWnd@@MAAXXZ @ 1265 NONAME
	?PostNcDestroy@CReflectorWnd@@MAAXXZ @ 1266 NONAME
	?PreCreateDialog@COccManager@@UAAPBUDLGTEMPLATE@@PAU_AFX_OCC_DIALOG_INFO@@PBU2@@Z @ 1267 NONAME
	?PreCreateWindow@CControlFrameWnd@@UAAHAAUtagCREATESTRUCTW@@@Z @ 1268 NONAME
	?PreModalDialog@COleControl@@QAAXPAUHWND__@@@Z @ 1269 NONAME
	?PrepareOleCtrl@CDataExchange@@QAAPAVCWnd@@H@Z @ 1270 NONAME
	?PreTranslateMessage@COlePropertyPage@@MAAHPAUtagMSG@@@Z @ 1271 NONAME
	?Process@COleDispatchException@@SAXPAUtagEXCEPINFO@@PBVCException@@@Z @ 1272 NONAME
	?Process@COleException@@SAJPBVCException@@@Z @ 1273 NONAME
	?PtrOfIndex@COleSafeArray@@QAAXPAJPAPAX@Z @ 1274 NONAME
	?PushStackArgs@CCmdTarget@@IAAJPAEPBEPAXGPAUtagDISPPARAMS@@PAIPAUtagVARIANT@@@Z @ 1275 NONAME
	?put_Bold@CCeFont@@UAAJH@Z @ 1276 NONAME
	?put_Charset@CCeFont@@UAAJF@Z @ 1277 NONAME
	?put_Italic@CCeFont@@UAAJH@Z @ 1278 NONAME
	?put_Name@CCeFont@@UAAJPAG@Z @ 1279 NONAME
	?put_Size@CCeFont@@UAAJTtagCY@@@Z @ 1280 NONAME
	?put_Strikethrough@CCeFont@@UAAJH@Z @ 1281 NONAME
	?put_Underline@CCeFont@@UAAJH@Z @ 1282 NONAME
	?put_Weight@CCeFont@@UAAJF@Z @ 1283 NONAME
	?PutElement@COleSafeArray@@QAAXPAJPAX@Z @ 1284 NONAME
	?PX_Blob@@YAHPAVCPropExchange@@PBGAAPAXPAX@Z @ 1285 NONAME
	?PX_Bool@@YAHPAVCPropExchange@@PBGAAH@Z @ 1286 NONAME
	?PX_Bool@@YAHPAVCPropExchange@@PBGAAHH@Z @ 1287 NONAME
	?PX_Color@@YAHPAVCPropExchange@@PBGAAK@Z @ 1288 NONAME
	?PX_Color@@YAHPAVCPropExchange@@PBGAAKK@Z @ 1289 NONAME
	?PX_Currency@@YAHPAVCPropExchange@@PBGAATtagCY@@@Z @ 1290 NONAME
	?PX_Currency@@YAHPAVCPropExchange@@PBGAATtagCY@@T2@@Z @ 1291 NONAME
	?PX_Double@@YAHPAVCPropExchange@@PBGAAN@Z @ 1292 NONAME
	?PX_Double@@YAHPAVCPropExchange@@PBGAANN@Z @ 1293 NONAME
	?PX_Float@@YAHPAVCPropExchange@@PBGAAM@Z @ 1294 NONAME
	?PX_Float@@YAHPAVCPropExchange@@PBGAAMM@Z @ 1295 NONAME
	?PX_Font@@YAHPAVCPropExchange@@PBGAAVCFontHolder@@PBUtagFONTDESC@@PAUIFontDisp@@@Z @ 1296 NONAME
	?PX_IUnknown@@YAHPAVCPropExchange@@PBGAAPAUIUnknown@@ABU_GUID@@PAU2@@Z @ 1297 NONAME
	?PX_Long@@YAHPAVCPropExchange@@PBGAAJ@Z @ 1298 NONAME
	?PX_Long@@YAHPAVCPropExchange@@PBGAAJJ@Z @ 1299 NONAME
	?PX_Picture@@YAHPAVCPropExchange@@PBGAAVCPictureHolder@@@Z @ 1300 NONAME
	?PX_Picture@@YAHPAVCPropExchange@@PBGAAVCPictureHolder@@2@Z @ 1301 NONAME
	?PX_Short@@YAHPAVCPropExchange@@PBGAAF@Z @ 1302 NONAME
	?PX_Short@@YAHPAVCPropExchange@@PBGAAFF@Z @ 1303 NONAME
	?PX_String@@YAHPAVCPropExchange@@PBGAAVCString@@@Z @ 1304 NONAME
	?PX_String@@YAHPAVCPropExchange@@PBGAAVCString@@1@Z @ 1305 NONAME
	?PX_String@@YAHPAVCPropExchange@@PBGAAVCString@@ABV2@@Z @ 1306 NONAME
	?PX_ULong@@YAHPAVCPropExchange@@PBGAAK@Z @ 1307 NONAME
	?PX_ULong@@YAHPAVCPropExchange@@PBGAAKK@Z @ 1308 NONAME
	?PX_UShort@@YAHPAVCPropExchange@@PBGAAG@Z @ 1309 NONAME
	?PX_UShort@@YAHPAVCPropExchange@@PBGAAGG@Z @ 1310 NONAME
	?PX_VBXFontConvert@@YAHPAVCPropExchange@@AAVCFontHolder@@@Z @ 1311 NONAME
	?QueryAggregates@CCmdTarget@@QAAPAUIUnknown@@PBX@Z @ 1312 NONAME
	?QueryFontInfo@CCeFont@@QAAJPAUHFONT__@@PAUtagTEXTMETRICW@@QAG@Z @ 1313 NONAME
	?QueryGetData@XDataObject@COleDataSource@@UAAJPAUtagFORMATETC@@@Z @ 1314 NONAME
	?QueryHitPoint@XViewObject@COleControl@@UAAJKPBUtagRECT@@UtagPOINT@@JPAK@Z @ 1315 NONAME
	?QueryHitRect@XViewObject@COleControl@@UAAJKPBUtagRECT@@0JPAK@Z @ 1316 NONAME
	?QueryInterface@CBlobProperty@@UAAJABU_GUID@@PAPAX@Z @ 1317 NONAME
	?QueryInterface@CCeFont@@UAAJABU_GUID@@PAPAX@Z @ 1318 NONAME
	?QueryInterface@CCeFont@@W3AAJABU_GUID@@PAPAX@Z @ 1319 NONAME
	?QueryInterface@CCeFont@@W7AAJABU_GUID@@PAPAX@Z @ 1320 NONAME
	?QueryInterface@CCeFont@@WBA@AAJABU_GUID@@PAPAX@Z @ 1321 NONAME
	?QueryInterface@CCeFont@@WM@AAJABU_GUID@@PAPAX@Z @ 1322 NONAME
	?QueryInterface@CInnerUnknown@@UAAJABU_GUID@@PAPAX@Z @ 1323 NONAME
	?QueryInterface@COleConnPtContainer@@UAAJABU_GUID@@PAPAX@Z @ 1324 NONAME
	?QueryInterface@COleDispatchImpl@@UAAJABU_GUID@@PAPAX@Z @ 1325 NONAME
	?QueryInterface@CStreamImp@@UAAJABU_GUID@@PAPAX@Z @ 1326 NONAME
	?QueryInterface@XAmbientProps@COleControlSite@@UAAJABU_GUID@@PAPAX@Z @ 1327 NONAME
	?QueryInterface@XClassFactory@COleObjectFactory@@UAAJABU_GUID@@PAPAX@Z @ 1328 NONAME
	?QueryInterface@XConnPt@CConnectionPoint@@UAAJABU_GUID@@PAPAX@Z @ 1329 NONAME
	?QueryInterface@XDataObject@COleDataSource@@UAAJABU_GUID@@PAPAX@Z @ 1330 NONAME
	?QueryInterface@XEnumVOID@CEnumArray@@UAAJABU_GUID@@PAPAX@Z @ 1331 NONAME
	?QueryInterface@XEventSink@COleControlSite@@UAAJABU_GUID@@PAPAX@Z @ 1332 NONAME
	?QueryInterface@XFontNotification@COleControl@@UAAJABU_GUID@@PAPAX@Z @ 1333 NONAME
	?QueryInterface@XOleClientSite@COleControlSite@@UAAJABU_GUID@@PAPAX@Z @ 1334 NONAME
	?QueryInterface@XOleContainer@COleControlContainer@@UAAJABU_GUID@@PAPAX@Z @ 1335 NONAME
	?QueryInterface@XOleControl@COleControl@@UAAJABU_GUID@@PAPAX@Z @ 1336 NONAME
	?QueryInterface@XOleControlSite@COleControlSite@@UAAJABU_GUID@@PAPAX@Z @ 1337 NONAME
	?QueryInterface@XOleInPlaceActiveObject@COleControl@@UAAJABU_GUID@@PAPAX@Z @ 1338 NONAME
	?QueryInterface@XOleInPlaceObject@COleControl@@UAAJABU_GUID@@PAPAX@Z @ 1339 NONAME
	?QueryInterface@XOleIPFrame@COleControlContainer@@UAAJABU_GUID@@PAPAX@Z @ 1340 NONAME
	?QueryInterface@XOleIPSite@COleControlSite@@UAAJABU_GUID@@PAPAX@Z @ 1341 NONAME
	?QueryInterface@XOleObject@COleControl@@UAAJABU_GUID@@PAPAX@Z @ 1342 NONAME
	?QueryInterface@XPerPropertyBrowsing@COleControl@@UAAJABU_GUID@@PAPAX@Z @ 1343 NONAME
	?QueryInterface@XPersistMemory@COleControl@@UAAJABU_GUID@@PAPAX@Z @ 1344 NONAME
	?QueryInterface@XPersistPropertyBag@COleControl@@UAAJABU_GUID@@PAPAX@Z @ 1345 NONAME
	?QueryInterface@XPersistStorage@COleControl@@UAAJABU_GUID@@PAPAX@Z @ 1346 NONAME
	?QueryInterface@XPersistStreamInit@COleControl@@UAAJABU_GUID@@PAPAX@Z @ 1347 NONAME
	?QueryInterface@XPointerInactive@COleControl@@UAAJABU_GUID@@PAPAX@Z @ 1348 NONAME
	?QueryInterface@XPropertyNotifySink@COleControlSite@@UAAJABU_GUID@@PAPAX@Z @ 1349 NONAME
	?QueryInterface@XPropertyPage@COlePropertyPage@@UAAJABU_GUID@@PAPAX@Z @ 1350 NONAME
	?QueryInterface@XPropNotifySink@COlePropertyPage@@UAAJABU_GUID@@PAPAX@Z @ 1351 NONAME
	?QueryInterface@XProvideClassInfo@COleControl@@UAAJABU_GUID@@PAPAX@Z @ 1352 NONAME
	?QueryInterface@XQuickActivate@COleControl@@UAAJABU_GUID@@PAPAX@Z @ 1353 NONAME
	?QueryInterface@XSpecifyPropertyPages@COleControl@@UAAJABU_GUID@@PAPAX@Z @ 1354 NONAME
	?QueryInterface@XViewObject@COleControl@@UAAJABU_GUID@@PAPAX@Z @ 1355 NONAME
	?QuerySinkInterface@CConnectionPoint@@UAAPAUIUnknown@@PAU2@@Z @ 1356 NONAME
	?QuerySinkInterface@XEventConnPt@COleControl@@UAAPAUIUnknown@@PAU3@@Z @ 1357 NONAME
	?QueryTextMetrics@CCeFont@@UAAJPAUtagTEXTMETRICW@@@Z @ 1358 NONAME
	?QueryTextMetrics@CFontHolder@@QAAXPAUtagTEXTMETRICW@@@Z @ 1359 NONAME
	?QuickActivate@COleControlSite@@UAAHXZ @ 1360 NONAME
	?QuickActivate@XQuickActivate@COleControl@@UAAJPAUtagQACONTAINER@@PAUtagQACONTROL@@@Z @ 1361 NONAME
	?ReactivateAndUndo@XOleInPlaceObject@COleControl@@UAAJXZ @ 1362 NONAME
	?Read@COleStreamFile@@UAAIPAXI@Z @ 1363 NONAME
	?Read@CStreamImp@@UAAJPAXKPAK@Z @ 1364 NONAME
	?ReadFromStream@CProperty@@QAAHPAUIStream@@@Z @ 1365 NONAME
	?ReadFromStream@CPropertySection@@QAAHPAUIStream@@T_LARGE_INTEGER@@@Z @ 1366 NONAME
	?ReadFromStream@CPropertySet@@QAAHPAUIStream@@@Z @ 1367 NONAME
	?ReadNameDictFromStream@CPropertySection@@QAAHPAUIStream@@@Z @ 1368 NONAME
	?RecreateControlWindow@COleControl@@QAAXXZ @ 1369 NONAME
	?RectVisible@CDC@@UBAHPBUtagRECT@@@Z @ 1370 NONAME
	?Redim@COleSafeArray@@QAAXPAUtagSAFEARRAYBOUND@@@Z @ 1371 NONAME
	?Refresh@COleControl@@QAAXXZ @ 1372 NONAME
	?Register@COleObjectFactory@@UAAHXZ @ 1373 NONAME
	?RegisterAll@COleObjectFactory@@SAHXZ @ 1374 NONAME
	?Release@CBlobProperty@@UAAKXZ @ 1375 NONAME
	?Release@CCeFont@@UAAKXZ @ 1376 NONAME
	?Release@CCeFont@@W3AAKXZ @ 1377 NONAME
	?Release@CCeFont@@W7AAKXZ @ 1378 NONAME
	?Release@CCeFont@@WBA@AAKXZ @ 1379 NONAME
	?Release@CCeFont@@WM@AAKXZ @ 1380 NONAME
	?Release@CInnerUnknown@@UAAKXZ @ 1381 NONAME
	?Release@COleConnPtContainer@@UAAKXZ @ 1382 NONAME
	?Release@COleDispatchImpl@@UAAKXZ @ 1383 NONAME
	?Release@CStreamImp@@UAAKXZ @ 1384 NONAME
	?Release@XAmbientProps@COleControlSite@@UAAKXZ @ 1385 NONAME
	?Release@XClassFactory@COleObjectFactory@@UAAKXZ @ 1386 NONAME
	?Release@XConnPt@CConnectionPoint@@UAAKXZ @ 1387 NONAME
	?Release@XDataObject@COleDataSource@@UAAKXZ @ 1388 NONAME
	?Release@XEnumVOID@CEnumArray@@UAAKXZ @ 1389 NONAME
	?Release@XEventSink@COleControlSite@@UAAKXZ @ 1390 NONAME
	?Release@XFontNotification@COleControl@@UAAKXZ @ 1391 NONAME
	?Release@XOleClientSite@COleControlSite@@UAAKXZ @ 1392 NONAME
	?Release@XOleContainer@COleControlContainer@@UAAKXZ @ 1393 NONAME
	?Release@XOleControl@COleControl@@UAAKXZ @ 1394 NONAME
	?Release@XOleControlSite@COleControlSite@@UAAKXZ @ 1395 NONAME
	?Release@XOleInPlaceActiveObject@COleControl@@UAAKXZ @ 1396 NONAME
	?Release@XOleInPlaceObject@COleControl@@UAAKXZ @ 1397 NONAME
	?Release@XOleIPFrame@COleControlContainer@@UAAKXZ @ 1398 NONAME
	?Release@XOleIPSite@COleControlSite@@UAAKXZ @ 1399 NONAME
	?Release@XOleObject@COleControl@@UAAKXZ @ 1400 NONAME
	?Release@XPerPropertyBrowsing@COleControl@@UAAKXZ @ 1401 NONAME
	?Release@XPersistMemory@COleControl@@UAAKXZ @ 1402 NONAME
	?Release@XPersistPropertyBag@COleControl@@UAAKXZ @ 1403 NONAME
	?Release@XPersistStorage@COleControl@@UAAKXZ @ 1404 NONAME
	?Release@XPersistStreamInit@COleControl@@UAAKXZ @ 1405 NONAME
	?Release@XPointerInactive@COleControl@@UAAKXZ @ 1406 NONAME
	?Release@XPropertyNotifySink@COleControlSite@@UAAKXZ @ 1407 NONAME
	?Release@XPropertyPage@COlePropertyPage@@UAAKXZ @ 1408 NONAME
	?Release@XPropNotifySink@COlePropertyPage@@UAAKXZ @ 1409 NONAME
	?Release@XProvideClassInfo@COleControl@@UAAKXZ @ 1410 NONAME
	?Release@XQuickActivate@COleControl@@UAAKXZ @ 1411 NONAME
	?Release@XSpecifyPropertyPages@COleControl@@UAAKXZ @ 1412 NONAME
	?Release@XViewObject@COleControl@@UAAKXZ @ 1413 NONAME
	?ReleaseCaches@COleControl@@IAAXXZ @ 1414 NONAME
	?ReleaseCapture@COleControl@@QAAHXZ @ 1415 NONAME
	?ReleaseDC@COleControl@@QAAHPAVCDC@@@Z @ 1416 NONAME
	?ReleaseDispatch@COleDispatchDriver@@QAAXXZ @ 1417 NONAME
	?ReleaseFont@CFontHolder@@QAAXXZ @ 1418 NONAME
	?ReleaseHfont@CCeFont@@UAAJPAUHFONT__@@@Z @ 1419 NONAME
	?Remove@CPropertySection@@QAAXK@Z @ 1420 NONAME
	?Remove@CPropertySet@@QAAXU_GUID@@@Z @ 1421 NONAME
	?Remove@CPropertySet@@QAAXU_GUID@@K@Z @ 1422 NONAME
	?RemoveAll@CPropertySection@@QAAXXZ @ 1423 NONAME
	?RemoveAll@CPropertySet@@QAAXXZ @ 1424 NONAME
	?RemoveMenus@XOleIPFrame@COleControlContainer@@UAAJPAUHMENU__@@@Z @ 1425 NONAME
	?ReparentControlWindow@COleControl@@UAAXPAUHWND__@@0@Z @ 1426 NONAME
	?RequestBorderSpace@XOleIPFrame@COleControlContainer@@UAAJPBUtagRECT@@@Z @ 1427 NONAME
	?RequestLicKey@XClassFactory@COleObjectFactory@@UAAJKPAPAG@Z @ 1428 NONAME
	?RequestNewObjectLayout@XOleClientSite@COleControlSite@@UAAJXZ @ 1429 NONAME
	?Reset@XEnumVOID@CEnumArray@@UAAJXZ @ 1430 NONAME
	?ResetStockProps@COleControl@@QAAXXZ @ 1431 NONAME
	?ResetVersion@COleControl@@QAAXK@Z @ 1432 NONAME
	?ResizeBorder@XOleInPlaceActiveObject@COleControl@@UAAJPBUtagRECT@@PAUIOleInPlaceUIWindow@@H@Z @ 1433 NONAME
	?ResizeFrameWindow@COleControl@@MAAXHH@Z @ 1434 NONAME
	?ResizeOneDim@COleSafeArray@@QAAXK@Z @ 1435 NONAME
	?ResizeOpenControl@COleControl@@IAAXHH@Z @ 1436 NONAME
	?RestoreFont@CFontHolder@@QAAXXZ @ 1437 NONAME
	?Revert@CStreamImp@@UAAJXZ @ 1438 NONAME
	?RoundDiv@@YAJJJ@Z @ 1439 NONAME
	?RoundFloatDiv@CCeFont@@SANNN@Z @ 1440 NONAME
	?RunAutomated@CWinApp@@QAAHXZ @ 1441 NONAME
	?RunEmbedded@CWinApp@@QAAHXZ @ 1442 NONAME
	?SafeSetProperty@COleControlSite@@UAAHJGZZ @ 1443 NONAME
	?Save@CBlobProperty@@UAAJPAUIStream@@H@Z @ 1444 NONAME
	?Save@CCeFont@@UAAJPAUIPropertyBag@@HH@Z @ 1445 NONAME
	?Save@CCeFont@@UAAJPAUIStream@@H@Z @ 1446 NONAME
	?Save@CCeFont@@W3AAJPAUIStream@@H@Z @ 1447 NONAME
	?Save@CStreamImp@@QAAJPAX@Z @ 1448 NONAME
	?Save@XPersistMemory@COleControl@@UAAJPAXHK@Z @ 1449 NONAME
	?Save@XPersistPropertyBag@COleControl@@UAAJPAUIPropertyBag@@HH@Z @ 1450 NONAME
	?Save@XPersistStorage@COleControl@@UAAJPAUIStorage@@H@Z @ 1451 NONAME
	?Save@XPersistStreamInit@COleControl@@UAAJPAUIStream@@H@Z @ 1452 NONAME
	?SaveCompleted@XPersistStorage@COleControl@@UAAJPAUIStorage@@@Z @ 1453 NONAME
	?SaveObject@XOleClientSite@COleControlSite@@UAAJXZ @ 1454 NONAME
	?SaveState@COleControl@@IAAJPAUIStream@@@Z @ 1455 NONAME
	?Scroll@XOleIPSite@COleControlSite@@UAAJUtagSIZE@@@Z @ 1456 NONAME
	?ScrollChildren@COleControlContainer@@UAAXHH@Z @ 1457 NONAME
	?ScrollWindow@COleControl@@QAAXHHPBUtagRECT@@0@Z @ 1458 NONAME
	?Seek@COleStreamFile@@UAAJJI@Z @ 1459 NONAME
	?Seek@CStreamImp@@UAAJT_LARGE_INTEGER@@KPAT_ULARGE_INTEGER@@@Z @ 1460 NONAME
	?Select@CFontHolder@@QAAPAVCFont@@PAVCDC@@JJ@Z @ 1461 NONAME
	?SelectFontObject@COleControl@@QAAPAVCFont@@PAVCDC@@AAVCFontHolder@@@Z @ 1462 NONAME
	?SelectStockFont@COleControl@@QAAPAVCFont@@PAVCDC@@@Z @ 1463 NONAME
	?SendAdvise@COleControl@@IAAXI@Z @ 1464 NONAME
	?SendDlgItemMessage@COleControlContainer@@UAAJHIIJ@Z @ 1465 NONAME
	?SendMnemonic@COleControlSite@@QAAXPAUtagMSG@@@Z @ 1466 NONAME
	?Serialize@CObject@@UAAXAAVCArchive@@@Z @ 1467 NONAME
	?Serialize@COleControl@@MAAXAAVCArchive@@@Z @ 1468 NONAME
	?SerializeExtent@COleControl@@QAAXAAVCArchive@@@Z @ 1470 NONAME
	?SerializeStockProps@COleControl@@QAAXAAVCArchive@@@Z @ 1471 NONAME
	?SerializeVersion@COleControl@@QAAKAAVCArchive@@KH@Z @ 1472 NONAME
	?Set@CProperty@@QAAHKQAXK@Z @ 1473 NONAME
	?Set@CProperty@@QAAHQAX@Z @ 1474 NONAME
	?Set@CProperty@@QAAHQAXK@Z @ 1475 NONAME
	?Set@CPropertySection@@QAAHKPAX@Z @ 1476 NONAME
	?Set@CPropertySection@@QAAHKPAXK@Z @ 1477 NONAME
	?Set@CPropertySet@@QAAHU_GUID@@KPAX@Z @ 1478 NONAME
	?Set@CPropertySet@@QAAHU_GUID@@KPAXK@Z @ 1479 NONAME
	?SetActiveObject@XOleIPFrame@COleControlContainer@@UAAJPAUIOleInPlaceActiveObject@@PBG@Z @ 1480 NONAME
	?SetAdvise@XViewObject@COleControl@@UAAJKKPAUIAdviseSink@@@Z @ 1481 NONAME
	?SetAppearance@COleControl@@QAAXF@Z @ 1482 NONAME
	?SetAt@CAfxOleSymbolTable@@QAAXHPBG@Z @ 1483 NONAME
	?SetBackColor@COleControl@@QAAXK@Z @ 1484 NONAME
	?SetBorderSpace@XOleIPFrame@COleControlContainer@@UAAJPBUtagRECT@@@Z @ 1485 NONAME
	?SetBorderStyle@COleControl@@QAAXF@Z @ 1486 NONAME
	?SetCapture@COleControl@@QAAPAVCWnd@@XZ @ 1487 NONAME
	?SetClassID@CPropertySet@@QAAXU_GUID@@@Z @ 1488 NONAME
	?SetClientSite@XOleObject@COleControl@@UAAJPAUIOleClientSite@@@Z @ 1489 NONAME
	?SetColorScheme@XOleObject@COleControl@@UAAJPAUtagLOGPALETTE@@@Z @ 1490 NONAME
	?SetContentExtent@XQuickActivate@COleControl@@UAAJPAUtagSIZE@@@Z @ 1491 NONAME
	?SetControl@CReflectorWnd@@QAAXPAVCOleControl@@@Z @ 1492 NONAME
	?SetControlSize@COleControl@@QAAHHH@Z @ 1493 NONAME
	?SetControlStatus@COlePropertyPage@@QAAHIH@Z @ 1494 NONAME
	?SetCurrency@COleCurrency@@QAAXJJ@Z @ 1495 NONAME
	?SetCurSel@CMonthCalCtrl@@QAAHABVCOleDateTime@@@Z @ 1496 NONAME
	?SetCurSel@CMonthCalCtrl@@QAAHABVCTime@@@Z @ 1497 NONAME
	?SetData@XDataObject@COleDataSource@@UAAJPAUtagFORMATETC@@PAUtagSTGMEDIUM@@H@Z @ 1498 NONAME
	?SetDateTime@COleDateTime@@QAAHHHHHHH@Z @ 1499 NONAME
	?SetDateTimeSpan@COleDateTimeSpan@@QAAXJHHH@Z @ 1500 NONAME
	?SetDayState@CMonthCalCtrl@@QAAHHPAK@Z @ 1501 NONAME
	?SetDefaultButton@COccManager@@SAXPAVCWnd@@H@Z @ 1502 NONAME
	?SetDefaultButton@COleControlSite@@QAAXH@Z @ 1503 NONAME
	?SetDialogResource@COlePropertyPage@@QAAXPAX@Z @ 1504 NONAME
	?SetDlgCtrlID@COleControlSite@@UAAHH@Z @ 1505 NONAME
	?SetDlgItemInt@COleControlContainer@@UAAXHIH@Z @ 1506 NONAME
	?SetDlgItemText@COleControlContainer@@UAAXHPBG@Z @ 1507 NONAME
	?SetEnabled@COleControl@@QAAXH@Z @ 1508 NONAME
	?SetExtent@COleControlSite@@IAAHXZ @ 1509 NONAME
	?SetExtent@XOleObject@COleControl@@UAAJKPAUtagSIZE@@@Z @ 1510 NONAME
	?SetFilePath@CFile@@UAAXPBG@Z @ 1511 NONAME
	?SetFirstDayOfWeek@CMonthCalCtrl@@QAAHHPAH@Z @ 1512 NONAME
	?SetFocus@COleControl@@QAAPAVCWnd@@XZ @ 1513 NONAME
	?SetFocus@COleControlSite@@UAAPAVCWnd@@XZ @ 1514 NONAME
	?SetFont@CFontHolder@@QAAXPAUIFont@@@Z @ 1515 NONAME
	?SetFont@COleControl@@QAAXPAUIFontDisp@@@Z @ 1516 NONAME
	?SetFontNotifySink@CFontHolder@@QAAXPAUIPropertyNotifySink@@@Z @ 1517 NONAME
	?SetForeColor@COleControl@@QAAXK@Z @ 1518 NONAME
	?SetFormatID@CPropertySection@@QAAXU_GUID@@@Z @ 1519 NONAME
	?SetFormatVersion@CPropertySet@@QAAXG@Z @ 1520 NONAME
	?SetHdc@CCeFont@@UAAJPAUHDC__@@@Z @ 1521 NONAME
	?SetHelpInfo@COlePropertyPage@@QAAXPBG0K@Z @ 1522 NONAME
	?SetHostNames@XOleObject@COleControl@@UAAJPBG0@Z @ 1523 NONAME
	?SetID@CProperty@@QAAXK@Z @ 1524 NONAME
	?SetInitialDataFormats@COleControl@@MAAXXZ @ 1525 NONAME
	?SetInitialSize@COleControl@@QAAXHH@Z @ 1526 NONAME
	?SetLength@COleStreamFile@@UAAXK@Z @ 1527 NONAME
	?SetMenu@XOleIPFrame@COleControlContainer@@UAAJPAUHMENU__@@PAXPAUHWND__@@@Z @ 1528 NONAME
	?SetModifiedFlag@COleControl@@QAAXH@Z @ 1529 NONAME
	?SetModifiedFlag@COlePropertyPage@@QAAXH@Z @ 1530 NONAME
	?SetMoniker@XOleObject@COleControl@@UAAJKPAUIMoniker@@@Z @ 1531 NONAME
	?SetName@CPropertySection@@QAAHKPBG@Z @ 1532 NONAME
	?SetNotPermitted@COleControl@@QAAXXZ @ 1533 NONAME
	?SetNotSupported@CCmdTarget@@QAAXXZ @ 1534 NONAME
	?SetNotSupported@COleControl@@QAAXXZ @ 1535 NONAME
	?SetObjectRects@XOleInPlaceObject@COleControl@@UAAJPBUtagRECT@@0@Z @ 1536 NONAME
	?SetObjects@XPropertyPage@COlePropertyPage@@UAAJKPAPAUIUnknown@@@Z @ 1537 NONAME
	?SetOSVersion@CPropertySet@@QAAXK@Z @ 1538 NONAME
	?SetPageName@COlePropertyPage@@QAAXPBG@Z @ 1539 NONAME
	?SetPageSite@XPropertyPage@COlePropertyPage@@UAAJPAUIPropertyPageSite@@@Z @ 1540 NONAME
	?SetParent@CWnd@@QAAPAV1@PAV1@@Z @ 1671 NONAME
	?SetPropCheck@COlePropertyPage@@QAAHPBGH@Z @ 1541 NONAME
	?SetProperty@COleControlSite@@UAAXJGZZ @ 1542 NONAME
	?SetProperty@COleDispatchDriver@@QAAXJGZZ @ 1543 NONAME
	?SetPropertyV@COleControlSite@@UAAXJGPAD@Z @ 1544 NONAME
	?SetPropIndex@COlePropertyPage@@QAAHPBGH@Z @ 1545 NONAME
	?SetPropRadio@COlePropertyPage@@QAAHPBGH@Z @ 1546 NONAME
	?SetPropsetData@COleControl@@IAAHPAUtagFORMATETC@@PAUtagSTGMEDIUM@@ABU_GUID@@@Z @ 1547 NONAME
	?SetPropText@COlePropertyPage@@QAAHPBGAAE@Z @ 1548 NONAME
	?SetPropText@COlePropertyPage@@QAAHPBGAAF@Z @ 1549 NONAME
	?SetPropText@COlePropertyPage@@QAAHPBGAAH@Z @ 1550 NONAME
	?SetPropText@COlePropertyPage@@QAAHPBGAAI@Z @ 1551 NONAME
	?SetPropText@COlePropertyPage@@QAAHPBGAAJ@Z @ 1552 NONAME
	?SetPropText@COlePropertyPage@@QAAHPBGAAK@Z @ 1553 NONAME
	?SetPropText@COlePropertyPage@@QAAHPBGAAM@Z @ 1554 NONAME
	?SetPropText@COlePropertyPage@@QAAHPBGAAN@Z @ 1555 NONAME
	?SetPropText@COlePropertyPage@@QAAHPBGAAVCString@@@Z @ 1556 NONAME
	?SetRange@CDateTimeCtrl@@QAAHPBVCOleDateTime@@0@Z @ 1557 NONAME
	?SetRange@CDateTimeCtrl@@QAAHPBVCTime@@0@Z @ 1558 NONAME
	?SetRange@CMonthCalCtrl@@QAAHPBVCOleDateTime@@0@Z @ 1559 NONAME
	?SetRange@CMonthCalCtrl@@QAAHPBVCTime@@0@Z @ 1560 NONAME
	?SetRange@CMonthCalCtrl@@QAAHQAU_SYSTEMTIME@@0@Z @ 1561 NONAME
	?SetRatio@CCeFont@@UAAJJJ@Z @ 1562 NONAME
	?SetRectInContainer@COleControl@@QAAHPBUtagRECT@@@Z @ 1563 NONAME
	?SetSectionName@CPropertySection@@QAAHPBG@Z @ 1564 NONAME
	?SetSelRange@CMonthCalCtrl@@QAAHABVCOleDateTime@@0@Z @ 1565 NONAME
	?SetSelRange@CMonthCalCtrl@@QAAHABVCTime@@0@Z @ 1566 NONAME
	?SetSelRange@CMonthCalCtrl@@QAAHQAU_SYSTEMTIME@@0@Z @ 1567 NONAME
	?SetSize@CStreamImp@@UAAJT_ULARGE_INTEGER@@@Z @ 1568 NONAME
	?SetStandardProp@CCmdTarget@@IAAJPBUAFX_DISPMAP_ENTRY@@PAUtagDISPPARAMS@@PAI@Z @ 1569 NONAME
	?SetStatusText@XOleIPFrame@COleControlContainer@@UAAJPBG@Z @ 1570 NONAME
	?SetString@COleVariant@@QAAXPBGG@Z @ 1571 NONAME
	?SetSysString@CString@@QBAPAGPAPAG@Z @ 1572 NONAME
	?SetText@COleControl@@QAAXPBG@Z @ 1573 NONAME
	?SetTime@CDateTimeCtrl@@QAAHABVCOleDateTime@@@Z @ 1574 NONAME
	?SetTime@CDateTimeCtrl@@QAAHPAU_SYSTEMTIME@@@Z @ 1575 NONAME
	?SetTime@CDateTimeCtrl@@QAAHPBVCTime@@@Z @ 1576 NONAME
	?SetToday@CMonthCalCtrl@@QAAXABVCOleDateTime@@@Z @ 1577 NONAME
	?SetToday@CMonthCalCtrl@@QAAXPBVCTime@@@Z @ 1578 NONAME
	?SetType@CProperty@@QAAXK@Z @ 1579 NONAME
	?SetWindowPos@COleControlSite@@UAAHPBVCWnd@@HHHHI@Z @ 1580 NONAME
	?SetWindowTextW@COleControlSite@@UAAXPBG@Z @ 1581 NONAME
	?Show@XPropertyPage@COlePropertyPage@@UAAJI@Z @ 1582 NONAME
	?ShowObject@XOleClientSite@COleControlSite@@UAAJXZ @ 1583 NONAME
	?ShowPropertyFrame@XOleControlSite@COleControlSite@@UAAJXZ @ 1584 NONAME
	?ShowWindow@COleControlSite@@UAAHH@Z @ 1585 NONAME
	?SizeMinReq@CMonthCalCtrl@@QAAHH@Z @ 1586 NONAME
	?Skip@XEnumVOID@CEnumArray@@UAAJK@Z @ 1587 NONAME
	?SplitDialogTemplate@COccManager@@UAAPAUDLGTEMPLATE@@PBU2@PAPAUDLGITEMTEMPLATE@@@Z @ 1588 NONAME
	?Stat@CStreamImp@@UAAJPAUtagSTATSTG@@K@Z @ 1589 NONAME
	?ThrowError@COleControl@@QAAXJII@Z @ 1590 NONAME
	?ThrowError@COleControl@@QAAXJPBGI@Z @ 1591 NONAME
	?TransformCoords@COleControl@@QAAXPAU_POINTL@@PAUtagPOINTF@@K@Z @ 1592 NONAME
	?TransformCoords@XOleControlSite@COleControlSite@@UAAJPAU_POINTL@@PAUtagPOINTF@@K@Z @ 1593 NONAME
	?TranslateAcceleratorW@XOleControlSite@COleControlSite@@UAAJPAUtagMSG@@K@Z @ 1594 NONAME
	?TranslateAcceleratorW@XOleInPlaceActiveObject@COleControl@@UAAJPAUtagMSG@@@Z @ 1595 NONAME
	?TranslateAcceleratorW@XOleIPFrame@COleControlContainer@@UAAJPAUtagMSG@@G@Z @ 1596 NONAME
	?TranslateAcceleratorW@XPropertyPage@COlePropertyPage@@UAAJPAUtagMSG@@@Z @ 1597 NONAME
	?TranslateColor@COleControl@@QAAKKPAUHPALETTE__@@@Z @ 1598 NONAME
	?UIActivateControl@COccManager@@KAXPAVCWnd@@@Z @ 1599 NONAME
	?UIDeactivate@XOleInPlaceObject@COleControl@@UAAJXZ @ 1600 NONAME
	?UIDeactivateIfNecessary@COccManager@@KAXPAVCWnd@@0@Z @ 1601 NONAME
	?UnaccessData@COleSafeArray@@QAAXXZ @ 1602 NONAME
	?Unadvise@XConnPt@CConnectionPoint@@UAAJK@Z @ 1603 NONAME
	?Unadvise@XOleObject@COleControl@@UAAJK@Z @ 1604 NONAME
	?Unfreeze@XViewObject@COleControl@@UAAJK@Z @ 1605 NONAME
	?UninitFontObject@CCeFont@@SAJXZ @ 1606 NONAME
	?Unlock@COleSafeArray@@QAAXXZ @ 1607 NONAME
	?Unlock@CUnknown@@UAAXXZ @ 1608 NONAME
	?UnlockRange@COleStreamFile@@UAAXKK@Z @ 1609 NONAME
	?UnlockRegion@CStreamImp@@UAAJT_ULARGE_INTEGER@@0K@Z @ 1610 NONAME
	?Unregister@COleObjectFactory@@QAAHXZ @ 1611 NONAME
	?UnregisterAll@COleObjectFactory@@SAHXZ @ 1612 NONAME
	?Update@XOleObject@COleControl@@UAAJXZ @ 1613 NONAME
	?UpdateFont@CCeFont@@QAAJXZ @ 1614 NONAME
	?UpdateFr@CCeFont@@QAAJPAUHFONT__@@PAUtagTEXTMETRICW@@QAG@Z @ 1615 NONAME
	?UpdateRegistry@COleObjectFactory@@MAAHH@Z @ 1616 NONAME
	?UpdateRegistry@COleObjectFactory@@QAAXPBG@Z @ 1617 NONAME
	?UpdateRegistryAll@COleObjectFactory@@SAHH@Z @ 1618 NONAME
	?VerifyLicenseKey@COleObjectFactory@@MAAHPAG@Z @ 1619 NONAME
	?VerifyUserLicense@COleObjectFactory@@MAAHXZ @ 1620 NONAME
	?wce_CLSIDFromProgID@@YAJPBGPAU_GUID@@@Z @ 1621 NONAME
	?wce_CoDisconnectObject@@YAJPAUIUnknown@@K@Z @ 1622 NONAME
	?wce_convertDialogItemTemplate@@YAPAEPAUDLGITEMTEMPLATE@@PAUDLGITEMTEMPLATEEX@@K@Z @ 1623 NONAME
	?wce_convertDialogTemplate@@YAPAEPAUDLGTEMPLATE@@PAUDLGTEMPLATEEX@@K@Z @ 1624 NONAME
	?wce_CoTaskMemRealloc@@YAPAXPAXKK@Z @ 1625 NONAME
	?wce_CreateStreamOnHGlobal@@YAJPAXHPAPAUIStream@@@Z @ 1626 NONAME
	?wce_GetModuleHandleA@@YAPAUHINSTANCE__@@PBD@Z @ 1673 NONAME
	?wce_GlobalAlloc@@YAPAXIK@Z @ 1674 NONAME
	?wce_IMMWndProc@@YAJPAUHWND__@@IIJ@Z @ 1627 NONAME
	?wce_OleCreateFontIndirect@@YAJPAXABU_GUID@@PAPAX@Z @ 1628 NONAME
	?wce_OleInitialize@@YAJPAX@Z @ 1629 NONAME
	?wce_OleLoadFromStream@@YAJPAUIStream@@ABU_GUID@@PAPAX@Z @ 1630 NONAME
	?wce_OleSaveToStream@@YAJPAUIPersistStream@@PAUIStream@@@Z @ 1631 NONAME
	?wce_OleTranslateColor@@YAJKPAUHPALETTE__@@PAK@Z @ 1632 NONAME
	?wce_OleUninitialize@@YAXXZ @ 1633 NONAME
	?wce_RegGetMiscStatus@@YAJABU_GUID@@PAK@Z @ 1634 NONAME
	?wce_ReleaseStgMedium@@YAXPAUtagSTGMEDIUM@@@Z @ 1635 NONAME
	?wce_UnregisterOleWindowClasses@@YAXXZ @ 1636 NONAME
	?WillAmbientsBeValidDuringLoad@COleControl@@QAAHXZ @ 1637 NONAME
	?WindowProc@COleControl@@UAAJIIJ@Z @ 1638 NONAME
	?WindowProc@COlePropertyPage@@MAAJIIJ@Z @ 1639 NONAME
	?WindowProc@CParkingWnd@@UAAJIIJ@Z @ 1640 NONAME
	?WindowProc@CReflectorWnd@@MAAJIIJ@Z @ 1641 NONAME
	?Write@COleStreamFile@@UAAXPBXI@Z @ 1642 NONAME
	?Write@CStreamImp@@UAAJPBXKPAK@Z @ 1643 NONAME
	?WriteNameDictToStream@CPropertySection@@QAAHPAUIStream@@@Z @ 1644 NONAME
	?WriteToStream@CProperty@@QAAHPAUIStream@@@Z @ 1645 NONAME
	?WriteToStream@CPropertySection@@QAAHPAUIStream@@@Z @ 1646 NONAME
	?WriteToStream@CPropertySet@@QAAHPAUIStream@@@Z @ 1647 NONAME
	afxChNil @ 16 NONAME
;	DoDragDrop @ 1695 NONAME
	RawDllMain @ 1648 NONAME
	??9@YAHABU_GUID@@0@Z @ 1706 NONAME
	?createCall@AfxRegisterState@@QAAXPAUDispatchArgument@@IPAI@Z @ 1707 NONAME
	?reset@AfxRegisterState@@QAAXXZ @ 1708 NONAME
	?useFloatReg@AfxRegisterState@@AAAXXZ @ 1709 NONAME
	?useIntReg@AfxRegisterState@@AAAXXZ @ 1710 NONAME
