;
; Copyright (c) Microsoft Corporation.  All rights reserved.
;
;
; Use of this source code is subject to the terms of the Microsoft end-user
; license agreement (EULA) under which you licensed this SOFTWARE PRODUCT.
; If you did not accept the terms of the EULA, you are not authorized to use
; this source code. For a copy of the EULA, please see the LICENSE.RTF on your
; install media.
;

LIBRARY olece400d 
EXPORTS 

;;;;;;;;;;;;;;;;;;;;;;;;;;;;;;;;;;;;;;;;;;;;;;;;;;;;;;;
;evc4.x compiler version specific section.
;compatible with apps that consume the provided mfcdll's and are built with new or old compilers 
;   old name is exported at original ordinal
;   new decoration exposed at a new ordinal and aliased to original 4.x name decoration
;   this ensures that applications built with 7.x compilers will link with the 4.x dlls
;   comment out this section of defs if building your own mfc with 7.x compiler
                                                           
     ??_H@YAXPAXIHP6AX0@Z@Z
     ??_H@YAXPAXIHP6APAX0@Z@Z=??_H@YAXPAXIHP6AX0@Z@Z

     ?ConstructElements@@YAXPAVCOleVariant@@H@Z
     ??$ConstructElements@VCOleVariant@@@@YAXPAVCOleVariant@@H@Z=?ConstructElements@@YAXPAVCOleVariant@@H@Z

     ?CopyElements@@YAXPAVCOleVariant@@PBV1@H@Z
     ??$CopyElements@VCOleVariant@@@@YAXPAVCOleVariant@@PBV0@H@Z=?CopyElements@@YAXPAVCOleVariant@@PBV1@H@Z

     ?DestructElements@@YAXPAVCOleVariant@@H@Z
     ??$DestructElements@VCOleVariant@@@@YAXPAVCOleVariant@@H@Z=?DestructElements@@YAXPAVCOleVariant@@H@Z

     ?HashKey@@YAIABUtagVARIANT@@@Z
     ??$HashKey@ABUtagVARIANT@@@@YAIABUtagVARIANT@@@Z=?HashKey@@YAIABUtagVARIANT@@@Z

     ?SerializeElements@@YAXAAVCArchive@@PAVCOleVariant@@H@Z
     ??$SerializeElements@VCOleVariant@@@@YAXAAVCArchive@@PAVCOleVariant@@H@Z=?SerializeElements@@YAXAAVCArchive@@PAVCOleVariant@@H@Z

     ?DumpElements@@YAXAAVCDumpContext@@PBVCOleVariant@@H@Z
     ??$DumpElements@VCOleVariant@@@@YAXAAVCDumpContext@@PBVCOleVariant@@H@Z=?DumpElements@@YAXAAVCDumpContext@@PBVCOleVariant@@H@Z

     ?HashKey@@YAIK@Z
     ??$HashKey@K@@YAIK@Z=?HashKey@@YAIK@Z

;end 4.x compiler specific section
;;;;;;;;;;;;;;;;;;;;;;;;;;;;;;;;;;;;;;;;;;;;;;;;;;;;;;;;;

;;;;;;;;;;;;;;;;;;;;;;;;;;;;;;;;;;;;;;;;;;;;;;;;;;;;;;;;;
;   evc7.x compiler version specific section. 
;   comment out the above section and uncomment this section
;   for 7.x compiler if building your own MFC with a 7.x compiler
;   new name is exported at original ordinal.
;   this will ensure that existing apps linked to a 4.x mfc dll will continue to function
;     
;   ??_H@YAXPAXIHP6APAX0@Z@Z
;   ??_H@YAXPAXIHP6AX0@Z@Z=??_H@YAXPAXIHP6APAX0@Z@Z
;
;   ??$ConstructElements@VCOleVariant@@@@YAXPAVCOleVariant@@H@Z
;   ?ConstructElements@@YAXPAVCOleVariant@@H@Z=??$ConstructElements@VCOleVariant@@@@YAXPAVCOleVariant@@H@Z
;
;   ??$CopyElements@VCOleVariant@@@@YAXPAVCOleVariant@@PBV0@H@Z
;   ?CopyElements@@YAXPAVCOleVariant@@PBV1@H@Z=??$CopyElements@VCOleVariant@@@@YAXPAVCOleVariant@@PBV0@H@Z
;
;   ??$DestructElements@VCOleVariant@@@@YAXPAVCOleVariant@@H@Z
;   ?DestructElements@@YAXPAVCOleVariant@@H@Z=??$DestructElements@VCOleVariant@@@@YAXPAVCOleVariant@@H@Z
;
;   ??$HashKey@ABUtagVARIANT@@@@YAIABUtagVARIANT@@@Z
;   ?HashKey@@YAIABUtagVARIANT@@@Z=??$HashKey@ABUtagVARIANT@@@@YAIABUtagVARIANT@@@Z
;
;   ??$SerializeElements@VCOleVariant@@@@YAXAAVCArchive@@PAVCOleVariant@@H@Z
;   ?SerializeElements@@YAXAAVCArchive@@PAVCOleVariant@@H@Z=??$SerializeElements@VCOleVariant@@@@YAXAAVCArchive@@PAVCOleVariant@@H@Z
;
;   ??$DumpElements@VCOleVariant@@@@YAXAAVCDumpContext@@PBVCOleVariant@@H@Z
;   ?DumpElements@@YAXAAVCDumpContext@@PBVCOleVariant@@H@Z=??$DumpElements@VCOleVariant@@@@YAXAAVCDumpContext@@PBVCOleVariant@@H@Z
;
;   ??$HashKey@K@@YAIK@Z
;   ?HashKey@@YAIK@Z=??$HashKey@K@@YAIK@Z
;
;end 7.x compiler specific section
;;;;;;;;;;;;;;;;;;;;;;;;;;;;;;;;;;;;;;;;;;;;;;;;;;;;;;

 afxChNil
 ??_0COleCurrency@@QAAABV0@J@Z
 ??_FCOleStreamFile@@QAAXXZ
 ??_I@YAXPAXIHP6AX0@Z@Z
 ??0_AFXCTL_ADVISE_INFO@@QAA@XZ
 ??0AFX_DDPDATA@@QAA@PAXHH0IPBG@Z
 ??0AFX_EVENT@@QAA@HJPAUtagDISPPARAMS@@PAUtagEXCEPINFO@@PAI@Z
 ??0CAfxOleSymbolTable@@QAA@H@Z
 ??0CArchivePropExchange@@QAA@AAVCArchive@@@Z
 ??0CAsyncPropExchange@@QAA@K@Z
 ??0CBlobProperty@@QAA@PAX@Z
 ??0CCeFont@@QAA@XZ
 ??0CConnectionPoint@@QAA@XZ
 ??0CControlDataSource@COleControl@@QAA@PAV1@@Z
 ??0CControlFrameWnd@@QAA@PAVCOleControl@@@Z
 ??0CControlRectTracker@@QAA@PBUtagRECT@@I@Z
 ??0CDateTimeCtrl@@QAA@XZ
 ??0CEnumArray@@QAA@IPBXIH@Z
 ??0CEnumConnections@@QAA@PBXI@Z
 ??0CEnumConnPoints@@QAA@PBXI@Z
 ??0CEnumOleVerb@@QAA@PBXI@Z
 ??0CEnumUnknown@@QAA@PBXI@Z
 ??0CFontHolder@@QAA@PAUIPropertyNotifySink@@@Z
 ??0CInnerUnknown@@QAA@XZ
 ??0CMonthCalCtrl@@QAA@XZ
 ??0CNoTrackObject@@QAA@XZ
 ??0COccManager@@QAA@XZ
 ??0COleConnPtContainer@@QAA@XZ
 ??0COleControl@@QAA@XZ
 ??0COleControlContainer@@QAA@PAVCWnd@@@Z
 ??0COleControlLock@@QAA@ABU_GUID@@@Z
 ??0COleControlSite@@QAA@PAVCOleControlContainer@@@Z
 ??0COleCurrency@@QAA@ABUtagVARIANT@@@Z
 ??0COleCurrency@@QAA@ABV0@@Z
 ??0COleCurrency@@QAA@JJ@Z
 ??0COleCurrency@@QAA@TtagCY@@@Z
 ??0COleCurrency@@QAA@XZ
 ??0COleDataSource@@QAA@XZ
 ??0COleDateTime@@QAA@ABU_FILETIME@@@Z
 ??0COleDateTime@@QAA@ABU_SYSTEMTIME@@@Z
 ??0COleDateTime@@QAA@ABUtagVARIANT@@@Z
 ??0COleDateTime@@QAA@ABV0@@Z
 ??0COleDateTime@@QAA@HHHHHH@Z
 ??0COleDateTime@@QAA@K@Z
 ??0COleDateTime@@QAA@N@Z
 ??0COleDateTime@@QAA@XZ
 ??0COleDateTimeSpan@@QAA@ABV0@@Z
 ??0COleDateTimeSpan@@QAA@JHHH@Z
 ??0COleDateTimeSpan@@QAA@N@Z
 ??0COleDateTimeSpan@@QAA@XZ
 ??0COleDispatchDriver@@QAA@ABV0@@Z
 ??0COleDispatchDriver@@QAA@PAUIDispatch@@H@Z
 ??0COleDispatchDriver@@QAA@XZ
 ??0COleDispatchException@@QAA@PBGIG@Z
 ??0COleDispatchImpl@@QAA@XZ
 ??0COleException@@QAA@XZ
 ??0COleObjectFactory@@QAA@ABU_GUID@@PAUCRuntimeClass@@HPBG@Z
 ??0COlePropertyPage@@QAA@II@Z
 ??0COleSafeArray@@QAA@ABUtagSAFEARRAY@@G@Z
 ??0COleSafeArray@@QAA@ABUtagVARIANT@@@Z
 ??0COleSafeArray@@QAA@ABV0@@Z
 ??0COleSafeArray@@QAA@PBUtagSAFEARRAY@@G@Z
 ??0COleSafeArray@@QAA@PBUtagVARIANT@@@Z
 ??0COleSafeArray@@QAA@XZ
 ??0COleStreamFile@@QAA@PAUIStream@@@Z
 ??0COleVariant@@QAA@AAVCString@@@Z
 ??0COleVariant@@QAA@ABUtagVARIANT@@@Z
 ??0COleVariant@@QAA@ABV0@@Z
 ??0COleVariant@@QAA@ABVCByteArray@@@Z
 ??0COleVariant@@QAA@ABVCLongBinary@@@Z
 ??0COleVariant@@QAA@ABVCOleCurrency@@@Z
 ??0COleVariant@@QAA@ABVCOleDateTime@@@Z
 ??0COleVariant@@QAA@E@Z
 ??0COleVariant@@QAA@FG@Z
 ??0COleVariant@@QAA@JG@Z
 ??0COleVariant@@QAA@M@Z
 ??0COleVariant@@QAA@N@Z
 ??0COleVariant@@QAA@PBG@Z
 ??0COleVariant@@QAA@PBGG@Z
 ??0COleVariant@@QAA@PBUtagVARIANT@@@Z
 ??0COleVariant@@QAA@XZ
 ??0CParkingWnd@@QAA@XZ
 ??0CPropbagPropExchange@@QAA@PAUIPropertyBag@@PAUIErrorLog@@HH@Z
 ??0CProperty@@QAA@KQAXK@Z
 ??0CProperty@@QAA@XZ
 ??0CPropertySection@@QAA@U_GUID@@@Z
 ??0CPropertySection@@QAA@XZ
 ??0CPropertySet@@QAA@U_GUID@@@Z
 ??0CPropertySet@@QAA@XZ
 ??0CPropExchange@@IAA@XZ
 ??0CPropsetPropExchange@@QAA@AAVCPropertySection@@PAUIStorage@@H@Z
 ??0CReflectorWnd@@QAA@XZ
 ??0CResetPropExchange@@QAA@XZ
 ??0CStreamImp@@QAA@PBGPAV0@PAVCStorageImp@@PAUCRITICAL_SECTION@@PAJPAEH@Z
 ??0CTypeLibCache@@QAA@XZ
 ??0CTypeLibCacheMap@@QAA@XZ
 ??0CUnknown@@QAA@PAUIUnknown@@@Z
 ??0CWindowlessDC@@QAA@PAUHDC__@@AAVCPoint@@@Z
 ??0IClassFactory@@QAA@XZ
 ??0IClassFactory2@@QAA@XZ
 ??0IConnectionPoint@@QAA@XZ
 ??0IConnectionPointContainer@@QAA@XZ
 ??0IDataObject@@QAA@XZ
 ??0IDispatch@@QAA@XZ
 ??0IEnumVOID@@QAA@XZ
 ??0IFont@@QAA@XZ
 ??0IFontDisp@@QAA@XZ
 ??0IInternalUnknown@@QAA@XZ
 ??0IOleClientSite@@QAA@XZ
 ??0IOleContainer@@QAA@XZ
 ??0IOleControl@@QAA@XZ
 ??0IOleControlSite@@QAA@XZ
 ??0IOleInPlaceActiveObject@@QAA@XZ
 ??0IOleInPlaceFrame@@QAA@XZ
 ??0IOleInPlaceObject@@QAA@XZ
 ??0IOleInPlaceObjectWindowless@@QAA@XZ
 ??0IOleInPlaceSite@@QAA@XZ
 ??0IOleInPlaceUIWindow@@QAA@XZ
 ??0IOleObject@@QAA@XZ
 ??0IOleWindow@@QAA@XZ
 ??0IParseDisplayName@@QAA@XZ
 ??0IPerPropertyBrowsing@@QAA@XZ
 ??0IPersist@@QAA@XZ
 ??0IPersistMemory@@QAA@XZ
 ??0IPersistPropertyBag@@QAA@XZ
 ??0IPersistStorage@@QAA@XZ
 ??0IPersistStream@@QAA@XZ
 ??0IPersistStreamInit@@QAA@XZ
 ??0IPointerInactive@@QAA@XZ
 ??0IPropertyNotifySink@@QAA@XZ
 ??0IPropertyPage@@QAA@XZ
 ??0IPropertyPage2@@QAA@XZ
 ??0IProvideClassInfo@@QAA@XZ
 ??0IProvideClassInfo2@@QAA@XZ
 ??0IQuickActivate@@QAA@XZ
 ??0ISequentialStream@@QAA@XZ
 ??0ISpecifyPropertyPages@@QAA@XZ
 ??0IStream@@QAA@XZ
 ??0IUnknown@@QAA@XZ
 ??0IViewObject@@QAA@XZ
 ??0IViewObject2@@QAA@XZ
 ??0IViewObjectEx@@QAA@XZ
 ??0OLE_DATA@@QAA@XZ
 ??0XAmbientProps@COleControlSite@@QAA@XZ
 ??0XClassFactory@COleObjectFactory@@QAA@XZ
 ??0XConnPt@CConnectionPoint@@QAA@XZ
 ??0XDataObject@COleDataSource@@QAA@XZ
 ??0XEnumVOID@CEnumArray@@QAA@XZ
 ??0XEventConnPt@COleControl@@QAA@XZ
 ??0XEventSink@COleControlSite@@QAA@XZ
 ??0XFontNotification@COleControl@@QAA@XZ
 ??0XOleClientSite@COleControlSite@@QAA@XZ
 ??0XOleContainer@COleControlContainer@@QAA@XZ
 ??0XOleControl@COleControl@@QAA@XZ
 ??0XOleControlSite@COleControlSite@@QAA@XZ
 ??0XOleInPlaceActiveObject@COleControl@@QAA@XZ
 ??0XOleInPlaceObject@COleControl@@QAA@XZ
 ??0XOleIPFrame@COleControlContainer@@QAA@XZ
 ??0XOleIPSite@COleControlSite@@QAA@XZ
 ??0XOleObject@COleControl@@QAA@XZ
 ??0XPerPropertyBrowsing@COleControl@@QAA@XZ
 ??0XPersistMemory@COleControl@@QAA@XZ
 ??0XPersistPropertyBag@COleControl@@QAA@XZ
 ??0XPersistStorage@COleControl@@QAA@XZ
 ??0XPersistStreamInit@COleControl@@QAA@XZ
 ??0XPointerInactive@COleControl@@QAA@XZ
 ??0XPropConnPt@COleControl@@QAA@XZ
 ??0XPropertyNotifySink@COleControlSite@@QAA@XZ
 ??0XPropertyPage@COlePropertyPage@@QAA@XZ
 ??0XPropNotifySink@COlePropertyPage@@QAA@XZ
 ??0XProvideClassInfo@COleControl@@QAA@XZ
 ??0XQuickActivate@COleControl@@QAA@XZ
 ??0XSpecifyPropertyPages@COleControl@@QAA@XZ
 ??0XViewObject@COleControl@@QAA@XZ
 ??1?$CProcessLocal@V_AFX_OLE_STATE@@@@QAA@XZ
 ??1?$CProcessLocal@VCOccManager@@@@QAA@XZ
 ??1?$CThreadLocal@V_AFXCTL_AMBIENT_CACHE@@@@QAA@XZ
 ??1AFX_DDPDATA@@UAA@XZ
 ??1AFX_EXCEPTION_LINK@@QAA@XZ
 ??1CAfxOleSymbolTable@@QAA@XZ
 ??1CCeFont@@UAA@XZ
 ??1CConnectionPoint@@UAA@XZ
 ??1CControlDataSource@COleControl@@UAA@XZ
 ??1CControlFrameWnd@@UAA@XZ
 ??1CControlRectTracker@@UAA@XZ
 ??1CDateTimeCtrl@@UAA@XZ
 ??1CEnumArray@@UAA@XZ
 ??1CEnumConnections@@UAA@XZ
 ??1CEnumConnPoints@@UAA@XZ
 ??1CEnumOleVerb@@UAA@XZ
 ??1CEnumUnknown@@UAA@XZ
 ??1CFontHolder@@QAA@XZ
 ??1CMonthCalCtrl@@UAA@XZ
 ??1CNoTrackObject@@UAA@XZ
 ??1COccManager@@UAA@XZ
 ??1COleControl@@UAA@XZ
 ??1COleControlContainer@@UAA@XZ
 ??1COleControlLock@@UAA@XZ
 ??1COleControlSite@@UAA@XZ
 ??1COleDataSource@@UAA@XZ
 ??1COleDispatchDriver@@QAA@XZ
 ??1COleDispatchException@@UAA@XZ
 ??1COleException@@UAA@XZ
 ??1COleObjectFactory@@UAA@XZ
 ??1COlePropertyPage@@UAA@XZ
 ??1COleSafeArray@@QAA@XZ
 ??1COleStreamFile@@UAA@XZ
 ??1COleVariant@@QAA@XZ
 ??1CParkingWnd@@UAA@XZ
 ??1CPropbagPropExchange@@QAA@XZ
 ??1CProperty@@QAA@XZ
 ??1CPropertySection@@QAA@XZ
 ??1CPropertySet@@QAA@XZ
 ??1CReflectorWnd@@UAA@XZ
 ??1CStreamImp@@QAA@XZ
 ??1CTypeLibCacheMap@@UAA@XZ
 ??1CUnknown@@UAA@XZ
 ??1CWindowlessDC@@UAA@XZ
 ??1XEventConnPt@COleControl@@UAA@XZ
 ??1XPropConnPt@COleControl@@UAA@XZ
 ??2@YAPAXIPAX@Z
 ??4COleConnPtContainer@@QAAAAV0@ABV0@@Z
 ??4COleCurrency@@QAAABV0@ABUtagVARIANT@@@Z
 ??4COleCurrency@@QAAABV0@ABV0@@Z
 ??4COleCurrency@@QAAABV0@TtagCY@@@Z
 ??4COleDateTime@@QAAABV0@ABK@Z
 ??4COleDateTime@@QAAABV0@ABU_FILETIME@@@Z
 ??4COleDateTime@@QAAABV0@ABU_SYSTEMTIME@@@Z
 ??4COleDateTime@@QAAABV0@ABUtagVARIANT@@@Z
 ??4COleDateTime@@QAAABV0@ABV0@@Z
 ??4COleDateTime@@QAAABV0@N@Z
 ??4COleDateTimeSpan@@QAAABV0@ABV0@@Z
 ??4COleDateTimeSpan@@QAAABV0@N@Z
 ??4COleDispatchDriver@@QAAABV0@ABV0@@Z
 ??4COleDispatchImpl@@QAAAAV0@ABV0@@Z
 ??4COleSafeArray@@QAAAAV0@ABUtagVARIANT@@@Z
 ??4COleSafeArray@@QAAAAV0@ABV0@@Z
 ??4COleSafeArray@@QAAAAV0@ABVCOleVariant@@@Z
 ??4COleSafeArray@@QAAAAV0@PBUtagVARIANT@@@Z
 ??4COleVariant@@QAAABV0@ABUtagVARIANT@@@Z
 ??4COleVariant@@QAAABV0@ABV0@@Z
 ??4COleVariant@@QAAABV0@ABVCByteArray@@@Z
 ??4COleVariant@@QAAABV0@ABVCLongBinary@@@Z
 ??4COleVariant@@QAAABV0@ABVCOleCurrency@@@Z
 ??4COleVariant@@QAAABV0@ABVCOleDateTime@@@Z
 ??4COleVariant@@QAAABV0@ABVCString@@@Z
 ??4COleVariant@@QAAABV0@E@Z
 ??4COleVariant@@QAAABV0@F@Z
 ??4COleVariant@@QAAABV0@J@Z
 ??4COleVariant@@QAAABV0@M@Z
 ??4COleVariant@@QAAABV0@N@Z
 ??4COleVariant@@QAAABV0@PBUtagVARIANT@@@Z
 ??4COleVariant@@QAAABV0@QBG@Z
 ??4IConnectionPointContainer@@QAAAAU0@ABU0@@Z
 ??4IDispatch@@QAAAAU0@ABU0@@Z
 ??4IUnknown@@QAAAAU0@ABU0@@Z
 ??5@YAAAVCArchive@@AAV0@AAVCOleCurrency@@@Z
 ??5@YAAAVCArchive@@AAV0@AAVCOleDateTime@@@Z
 ??5@YAAAVCArchive@@AAV0@AAVCOleDateTimeSpan@@@Z
 ??5@YAAAVCArchive@@AAV0@AAVCOleVariant@@@Z
 ??6@YAAAVCArchive@@AAV0@VCOleCurrency@@@Z
 ??6@YAAAVCArchive@@AAV0@VCOleDateTime@@@Z
 ??6@YAAAVCArchive@@AAV0@VCOleDateTimeSpan@@@Z
 ??6@YAAAVCArchive@@AAV0@VCOleVariant@@@Z
 ??6@YAAAVCDumpContext@@AAV0@AAVCOleSafeArray@@@Z
 ??6@YAAAVCDumpContext@@AAV0@VCOleCurrency@@@Z
 ??6@YAAAVCDumpContext@@AAV0@VCOleDateTime@@@Z
 ??6@YAAAVCDumpContext@@AAV0@VCOleDateTimeSpan@@@Z
 ??6@YAAAVCDumpContext@@AAV0@VCOleVariant@@@Z
 ??8@YAHABU_GUID@@0@Z
 ??8COleCurrency@@QBAHABV0@@Z
 ??8COleDateTime@@QBAHABV0@@Z
 ??8COleDateTimeSpan@@QBAHABV0@@Z
 ??8COleSafeArray@@QBAHABUtagSAFEARRAY@@@Z
 ??8COleSafeArray@@QBAHABUtagVARIANT@@@Z
 ??8COleSafeArray@@QBAHABV0@@Z
 ??8COleSafeArray@@QBAHABVCOleVariant@@@Z
 ??8COleSafeArray@@QBAHPBUtagSAFEARRAY@@@Z
 ??8COleSafeArray@@QBAHPBUtagVARIANT@@@Z
 ??8COleVariant@@QBAHABUtagVARIANT@@@Z
 ??8COleVariant@@QBAHPBUtagVARIANT@@@Z
 ??9@YAHABU_GUID@@0@Z
 ??9COleCurrency@@QBAHABV0@@Z
 ??9COleDateTime@@QBAHABV0@@Z
 ??9COleDateTimeSpan@@QBAHABV0@@Z
 ??B?$CProcessLocal@V_AFX_OLE_STATE@@@@QAAPAV_AFX_OLE_STATE@@XZ
 ??B?$CThreadLocal@V_AFXCTL_AMBIENT_CACHE@@@@QAAPAV_AFXCTL_AMBIENT_CACHE@@XZ
 ??B?$CTypedSimpleList@PAUCRuntimeClass@@@@QAAPAUCRuntimeClass@@XZ
 ??B?$CTypedSimpleList@PAVCDynLinkLibrary@@@@QAAPAVCDynLinkLibrary@@XZ
 ??B?$CTypedSimpleList@PAVCOleControlLock@@@@QAAPAVCOleControlLock@@XZ
 ??B?$CTypedSimpleList@PAVCOleObjectFactory@@@@QAAPAVCOleObjectFactory@@XZ
 ??BCOleCurrency@@QBA?ATtagCY@@XZ
 ??BCOleDateTime@@QBANXZ
 ??BCOleDateTimeSpan@@QBANXZ
 ??BCOleDispatchDriver@@QAAPAUIDispatch@@XZ
 ??BCOleSafeArray@@QAAPAUtagVARIANT@@XZ
 ??BCOleSafeArray@@QBAPBUtagVARIANT@@XZ
 ??BCOleVariant@@QAAPAUtagVARIANT@@XZ
 ??BCOleVariant@@QBAPBUtagVARIANT@@XZ
 ??C?$CProcessLocal@V_AFX_OLE_STATE@@@@QAAPAV_AFX_OLE_STATE@@XZ
 ??C?$CThreadLocal@V_AFXCTL_AMBIENT_CACHE@@@@QAAPAV_AFXCTL_AMBIENT_CACHE@@XZ
 ??DCOleCurrency@@QBA?AV0@J@Z
 ??GCOleCurrency@@QBA?AV0@ABV0@@Z
 ??GCOleCurrency@@QBA?AV0@XZ
 ??GCOleDateTime@@QBA?AV0@ABVCOleDateTimeSpan@@@Z
 ??GCOleDateTime@@QBA?AVCOleDateTimeSpan@@ABV0@@Z
 ??GCOleDateTimeSpan@@QBA?AV0@ABV0@@Z
 ??GCOleDateTimeSpan@@QBA?AV0@XZ
 ??HCOleCurrency@@QBA?AV0@ABV0@@Z
 ??HCOleDateTime@@QBA?AV0@ABVCOleDateTimeSpan@@@Z
 ??HCOleDateTimeSpan@@QBA?AV0@ABV0@@Z
 ??KCOleCurrency@@QBA?AV0@J@Z
 ??MCOleCurrency@@QBAHABV0@@Z
 ??MCOleDateTime@@QBAHABV0@@Z
 ??MCOleDateTimeSpan@@QBAHABV0@@Z
 ??NCOleCurrency@@QBAHABV0@@Z
 ??NCOleDateTime@@QBAHABV0@@Z
 ??NCOleDateTimeSpan@@QBAHABV0@@Z
 ??OCOleCurrency@@QBAHABV0@@Z
 ??OCOleDateTime@@QBAHABV0@@Z
 ??OCOleDateTimeSpan@@QBAHABV0@@Z
 ??PCOleCurrency@@QBAHABV0@@Z
 ??PCOleDateTime@@QBAHABV0@@Z
 ??PCOleDateTimeSpan@@QBAHABV0@@Z
 ??XCOleCurrency@@QAAABV0@J@Z
 ??YCOleCurrency@@QAAABV0@ABV0@@Z
 ??YCOleDateTime@@QAAABV0@VCOleDateTimeSpan@@@Z
 ??YCOleDateTimeSpan@@QAAABV0@V0@@Z
 ??ZCOleCurrency@@QAAABV0@ABV0@@Z
 ??ZCOleDateTime@@QAAABV0@VCOleDateTimeSpan@@@Z
 ??ZCOleDateTimeSpan@@QAAABV0@V0@@Z
 ?_AfxAtEndOfTabList@@YAHPAVCDialog@@I@Z
 ?_AfxCheckDefPushButton@@YAXPAVCWnd@@00@Z
 ?_AfxCleanupDDPs@@YAXAAVCPtrArray@@@Z
 ?_AfxCoCreateInstanceLic@@YAJABU_GUID@@PAUIUnknown@@K0PAPAXPAG@Z
 ?_AfxCoerceNumber@@YAHPAXG0G@Z
 ?_AfxCompareSafeArrays@@YAHPAUtagSAFEARRAY@@0@Z
 ?_AfxConvertStringProp@@YAPAEPAEKKI@Z
 ?_AfxCopyBinaryData@@YAXPAUtagSAFEARRAY@@PBXK@Z
 ?_AfxCopyBlob@@YAHPAPAXPAX@Z
 ?_AfxCopyGlobalMemory@@YAPAXPAX0@Z
 ?_AfxCopyPropValue@@YAHGPAXPBX@Z
 ?_AfxCopyStgMedium@@YAHGPAUtagSTGMEDIUM@@0@Z
 ?_AfxCopyString@@YAPAGPBG@Z
 ?_AfxCountPrefixedStringA@@YAPAXPBD@Z
 ?_AfxCountPrefixedStringW@@YAPAXPBG@Z
 ?_AfxCreateFontFromStream@@YAPAUIFont@@PAUIStream@@@Z
 ?_AfxCreateMemoryStream@@YAPAUIStream@@XZ
 ?_AfxCreateObjectFromStreamedPropset@@YAPAUIUnknown@@PAUIStream@@ABU_GUID@@@Z
 ?_AfxCreateOneDimArray@@YAXAAUtagVARIANT@@K@Z
 ?_AfxDateFromDouble@@YANN@Z
 ?_AfxDlgSetFocus@@YAXPAVCWnd@@@Z
 ?_AfxDoubleFromDate@@YANN@Z
 ?_AfxDrawBorders@@YAXPAVCDC@@AAVCRect@@HH@Z
 ?_AfxDumpGuid@@YAXAAVCDumpContext@@PBU_GUID@@@Z
 ?_AfxDumpHex@@YAXAAVCDumpContext@@K@Z
 ?_AfxDumpSafeArrayElement@@YAXAAVCDumpContext@@AAVCOleSafeArray@@PAJ@Z
 ?_AfxFillFormatEtc@@YAPAUtagFORMATETC@@PAU1@G0@Z
 ?_AfxFillOleFileException@@YAXPAVCFileException@@J@Z
 ?_AfxFillPSOnStack@@YAXXZ
 ?_AfxFindDlgItem@@YAPAVCWnd@@PAV1@K@Z
 ?_AfxFindFirstDlgItem@@YAPAUDLGITEMTEMPLATE@@PBUDLGTEMPLATE@@@Z
 ?_AfxFindNextDlgItem@@YAPAUDLGITEMTEMPLATE@@PAU1@H@Z
 ?_AfxFindNextMnem@@YAPAVCWnd@@PAV1@0PAUtagMSG@@@Z
 ?_AfxGetArchiveStream@@YAPAUIStream@@AAVCArchive@@AAVCArchiveStream@@@Z
 ?_AfxGetChildControl@@YAPAVCWnd@@PAV1@0@Z
 ?_AfxGetClassIDFromStreamedPropset@@YAHPAU_GUID@@PAUIStream@@@Z
 ?_AfxGetClipboardFormatConvertVBX@@YAGXZ
 ?_AfxGetClipboardFormatPersistPropset@@YAGXZ
 ?_AfxGetDlgCode@@YAKPAVCWnd@@PAUtagMSG@@@Z
 ?_AfxGetNextMnem@@YAPAVCWnd@@PAV1@0PAUtagMSG@@@Z
 ?_AfxGetOleModuleState@@YAPAVAFX_MODULE_STATE@@XZ
 ?_AfxGetParkingWindow@@YAPAUHWND__@@XZ
 ?_AfxGetSizeOfVarType@@YAIG@Z
 ?_AfxGetTopLevelWindow@@YAPAUHWND__@@PAU1@@Z
 ?_AfxInitBlob@@YAHPAPAXPAX@Z
 ?_AfxInitStreamDataFromBlobProp@@YAHPAUIStream@@PAVCProperty@@@Z
 ?_AfxIsEqualGUID@@YAHABU_GUID@@0@Z
 ?_AfxIsRadioButton@@YAHPAUHWND__@@@Z
 ?_AfxIsSameFont@@YAHAAVCFontHolder@@PBUtagFONTDESC@@PAUIFontDisp@@@Z
 ?_AfxIsSamePropValue@@YAHGPBX0@Z
 ?_AfxIsSameUnknownObject@@YAHABU_GUID@@PAUIUnknown@@1@Z
 ?_AfxLoadObjectFromStreamedPropset@@YAHPAUIUnknown@@PAUIStream@@@Z
 ?_AfxLoadStreamFromPropset@@YAPAUIStream@@AAVCPropertySection@@PBGAAK@Z
 ?_AfxNextControl@@YAPAVCWnd@@PAV1@0I@Z
 ?_AfxOffsetTrackerRect@@YAXAAVCRect@@PAVCWnd@@@Z
 ?_AfxOleDateFromTm@@YAHGGGGGGAAN@Z
 ?_AfxOleGetObjectDescriptorData@@YAPAXPAUIOleObject@@PBGKU_POINTL@@PAUtagSIZE@@@Z
 ?_AfxOleGetObjectDescriptorData@@YAPAXU_GUID@@KUtagSIZE@@U_POINTL@@KPBG3@Z
 ?_AfxOleMakeSymbolTable@@YAHAAVCAfxOleSymbolTable@@ABU_GUID@@PBG22H22@Z
 ?_AfxOleMatchPropsetClipFormat@@YAHGPAU_GUID@@@Z
 ?_AfxOriginalDefButton@@YAHPAVCWnd@@@Z
 ?_AfxParseOption@@YAHPAGPBG@Z
 ?_AfxPeekAtClassIDInStream@@YAHPAUIStream@@PAU_GUID@@@Z
 ?_AfxPostTrailByte@@YAXPAVCWnd@@E@Z
 ?_AfxQueryInterface@@YAPAUIUnknown@@PAU1@ABU_GUID@@@Z
 ?_AfxReadFromStream@@YAJPAUIStream@@PAXIAAK@Z
 ?_AfxRecursiveRegDeleteKey@@YAJPAUHKEY__@@PAG@Z
 ?_AfxRegDeleteKeySucceeded@@YAHJ@Z
 ?_AfxRegisterClipFormat@@YAGABU_GUID@@@Z
 ?_AfxRelease@@YAKPAPAUIUnknown@@@Z
 ?_AfxReleaseParkingWindow@@YAXXZ
 ?_AfxRemoveDefaultButton@@YAXPAVCWnd@@0@Z
 ?_AfxSaveObjectInPropset@@YAHPAUIUnknown@@AAVCPropertySection@@K@Z
 ?_AfxSaveStreamDataAsBlobProp@@YAHPAUIStream@@AAVCPropertySection@@KK@Z
 ?_AfxShiftState@@YAFXZ
 ?_AfxThrowOleFileException@@YAXJ@Z
 ?_AfxTmConvertToStandardFormat@@YAXAAUtm@@@Z
 ?_AfxTmFromOleDate@@YAHNAAUtm@@@Z
 ?_AfxToggleAppearance@@YAXPAVCWnd@@@Z
 ?_AfxToggleBorderStyle@@YAXPAVCWnd@@@Z
 ?_AfxUnregisterInterfaces@@YAXPAUITypeLib@@@Z
 ?_AfxWriteNameDictEntry@@YAHPAUIStream@@KAAVCString@@@Z
 ?_AfxXformSizeInHimetricToPixels@@YAXPAUHDC__@@PAUtagSIZE@@1@Z
 ?_AfxXformSizeInPixelsToHimetric@@YAXPAUHDC__@@PAUtagSIZE@@1@Z
 ?_ClearCompat@COleVariant@@QAAXXZ
 ?_GetBaseClass@CDateTimeCtrl@@KAPAUCRuntimeClass@@XZ
 ?_GetBaseClass@CMonthCalCtrl@@KAPAUCRuntimeClass@@XZ
 ?_GetBaseClass@COleControl@@KAPAUCRuntimeClass@@XZ
 ?_GetBaseClass@COleControlModule@@KAPAUCRuntimeClass@@XZ
 ?_GetBaseClass@COleDispatchException@@KAPAUCRuntimeClass@@XZ
 ?_GetBaseClass@COleException@@KAPAUCRuntimeClass@@XZ
 ?_GetBaseClass@COleObjectFactory@@KAPAUCRuntimeClass@@XZ
 ?_GetBaseClass@COlePropertyPage@@KAPAUCRuntimeClass@@XZ
 ?_GetBaseClass@COleStreamFile@@KAPAUCRuntimeClass@@XZ
 ?_GetBaseClass@CWindowlessDC@@KAPAUCRuntimeClass@@XZ
 ?_GetBaseConnectionMap@COleControl@@KAPBUAFX_CONNECTIONMAP@@XZ
 ?_GetBaseDispatchMap@COleControlContainer@@KAPBUAFX_DISPMAP@@XZ
 ?_GetBaseInterfaceMap@CEnumConnections@@KAPBUAFX_INTERFACEMAP@@XZ
 ?_GetBaseInterfaceMap@CEnumConnPoints@@KAPBUAFX_INTERFACEMAP@@XZ
 ?_GetBaseInterfaceMap@CEnumOleVerb@@KAPBUAFX_INTERFACEMAP@@XZ
 ?_GetBaseInterfaceMap@CEnumUnknown@@KAPBUAFX_INTERFACEMAP@@XZ
 ?_GetBaseInterfaceMap@COleControl@@KAPBUAFX_INTERFACEMAP@@XZ
 ?_GetBaseInterfaceMap@COleControlContainer@@KAPBUAFX_INTERFACEMAP@@XZ
 ?_GetBaseInterfaceMap@COleControlSite@@KAPBUAFX_INTERFACEMAP@@XZ
 ?_GetBaseInterfaceMap@COleDataSource@@KAPBUAFX_INTERFACEMAP@@XZ
 ?_GetBaseInterfaceMap@COleObjectFactory@@KAPBUAFX_INTERFACEMAP@@XZ
 ?_GetBaseInterfaceMap@COlePropertyPage@@KAPBUAFX_INTERFACEMAP@@XZ
 ?_GetBaseMessageMap@CControlFrameWnd@@KAPBUAFX_MSGMAP@@XZ
 ?_GetBaseMessageMap@COleControl@@KAPBUAFX_MSGMAP@@XZ
 ?_GetBaseMessageMap@COlePropertyPage@@KAPBUAFX_MSGMAP@@XZ
 ?_GetClippingCoordinates@@YAXPBUtagRECT@@0PAU1@PAUtagPOINT@@@Z
 ?_GetI4Property@@YAHPAUIDispatch@@JPAK@Z
 ?_ValidatePageDialog@@YAXAAVCDialogTemplate@@AAVCString@@PAVCOlePropertyPage@@@Z
 ?Abort@COleStreamFile@@UAAXXZ
 ?AccessData@COleSafeArray@@QAAXPAPAX@Z
 ?Activate@XPropertyPage@COlePropertyPage@@UAAJPAUHWND__@@PBUtagRECT@@H@Z
 ?AddConnection@CEnumConnections@@QAAXPAUtagCONNECTDATA@@@Z
 ?AddConnPoint@CEnumConnPoints@@QAAXPAUIConnectionPoint@@@Z
 ?AddHead@?$CTypedSimpleList@PAVCOleControlLock@@@@QAAXPAVCOleControlLock@@@Z
 ?AddHead@?$CTypedSimpleList@PAVCOleObjectFactory@@@@QAAXPAVCOleObjectFactory@@@Z
 ?AddProperty@CPropertySection@@QAAXPAVCProperty@@@Z
 ?AddProperty@CPropertySet@@QAAXU_GUID@@PAVCProperty@@@Z
 ?AddRef@CBlobProperty@@UAAKXZ
 ?AddRef@CCeFont@@UAAKXZ
 ?AddRef@CCeFont@@W3AAKXZ
 ?AddRef@CCeFont@@W7AAKXZ
 ?AddRef@CCeFont@@WBA@AAKXZ
 ?AddRef@CCeFont@@WM@AAKXZ
 ?AddRef@CInnerUnknown@@UAAKXZ
 ?AddRef@COleConnPtContainer@@UAAKXZ
 ?AddRef@COleDispatchImpl@@UAAKXZ
 ?AddRef@CStreamImp@@UAAKXZ
 ?AddRef@XAmbientProps@COleControlSite@@UAAKXZ
 ?AddRef@XClassFactory@COleObjectFactory@@UAAKXZ
 ?AddRef@XConnPt@CConnectionPoint@@UAAKXZ
 ?AddRef@XDataObject@COleDataSource@@UAAKXZ
 ?AddRef@XEnumVOID@CEnumArray@@UAAKXZ
 ?AddRef@XEventSink@COleControlSite@@UAAKXZ
 ?AddRef@XFontNotification@COleControl@@UAAKXZ
 ?AddRef@XOleClientSite@COleControlSite@@UAAKXZ
 ?AddRef@XOleContainer@COleControlContainer@@UAAKXZ
 ?AddRef@XOleControl@COleControl@@UAAKXZ
 ?AddRef@XOleControlSite@COleControlSite@@UAAKXZ
 ?AddRef@XOleInPlaceActiveObject@COleControl@@UAAKXZ
 ?AddRef@XOleInPlaceObject@COleControl@@UAAKXZ
 ?AddRef@XOleIPFrame@COleControlContainer@@UAAKXZ
 ?AddRef@XOleIPSite@COleControlSite@@UAAKXZ
 ?AddRef@XOleObject@COleControl@@UAAKXZ
 ?AddRef@XPerPropertyBrowsing@COleControl@@UAAKXZ
 ?AddRef@XPersistMemory@COleControl@@UAAKXZ
 ?AddRef@XPersistPropertyBag@COleControl@@UAAKXZ
 ?AddRef@XPersistStorage@COleControl@@UAAKXZ
 ?AddRef@XPersistStreamInit@COleControl@@UAAKXZ
 ?AddRef@XPointerInactive@COleControl@@UAAKXZ
 ?AddRef@XPropertyNotifySink@COleControlSite@@UAAKXZ
 ?AddRef@XPropertyPage@COlePropertyPage@@UAAKXZ
 ?AddRef@XPropNotifySink@COlePropertyPage@@UAAKXZ
 ?AddRef@XProvideClassInfo@COleControl@@UAAKXZ
 ?AddRef@XQuickActivate@COleControl@@UAAKXZ
 ?AddRef@XSpecifyPropertyPages@COleControl@@UAAKXZ
 ?AddRef@XViewObject@COleControl@@UAAKXZ
 ?AddRefHfont@CCeFont@@UAAJPAUHFONT__@@@Z
 ?AddSection@CPropertySet@@QAAPAVCPropertySection@@U_GUID@@@Z
 ?AddSection@CPropertySet@@QAAXPAVCPropertySection@@@Z
 ?Advise@XConnPt@CConnectionPoint@@UAAJPAUIUnknown@@PAK@Z
 ?Advise@XOleObject@COleControl@@UAAJPAUIAdviseSink@@PAK@Z
 ?AfxAllocTaskAnsiString@@YAPADPBD@Z
 ?AfxAllocTaskAnsiString@@YAPADPBG@Z
 ?AfxAllocTaskWideString@@YAPAGPBD@Z
 ?AfxAllocTaskWideString@@YAPAGPBG@Z
 ?AfxBSTR2CString@@YAXPAVCString@@PAG@Z
 ?AfxCheckError@@YAXJ@Z
 ?AfxConnectionAdvise@@YAHPAUIUnknown@@ABU_GUID@@0HPAK@Z
 ?AfxConnectionUnadvise@@YAHPAUIUnknown@@ABU_GUID@@0HK@Z
 ?AfxDllCanUnloadNow@@YAJXZ
 ?AfxDllGetClassObject@@YAJABU_GUID@@0PAPAX@Z
 ?AfxEnableControlContainer@@YAXPAVCOccManager@@@Z
 ?AfxGetClassIDFromString@@YAJPBGPAU_GUID@@@Z
 ?AfxGetFacilityString@@YAPBGJ@Z
 ?AfxGetFullScodeString@@YAPBGJ@Z
 ?AfxGetIIDString@@YAPBGABU_GUID@@@Z
 ?AfxGetScodeRangeString@@YAPBGJ@Z
 ?AfxGetScodeString@@YAPBGJ@Z
 ?AfxGetSeverityString@@YAPBGJ@Z
 ?AfxGetTypeLibCache@@YAPAVCTypeLibCache@@PBU_GUID@@@Z
 ?AfxLoadOle@@YAPAUHINSTANCE__@@PAP6AHXZPBD@Z
 ?AfxLoadOleAut@@YAPAUHINSTANCE__@@PAP6AHXZPBD@Z
 ?AfxMergeMenus@@YAPAUHMENU__@@PAU1@0PAJHH@Z
 ?AfxOleInit@@YAHXZ
 ?AfxOleInitModule@@YAXXZ
 ?AfxOleLockControl@@YAHABU_GUID@@@Z
 ?AfxOleLockControl@@YAHPBG@Z
 ?AfxOleRegisterControlClass@@YAHPAUHINSTANCE__@@ABU_GUID@@PBGIIHK1GG@Z
 ?AfxOleRegisterHelper@@YAHPBQBG0HHPAUHKEY__@@@Z
 ?AfxOleRegisterPropertyPageClass@@YAHPAUHINSTANCE__@@ABU_GUID@@I@Z
 ?AfxOleRegisterPropertyPageClass@@YAHPAUHINSTANCE__@@ABU_GUID@@IH@Z
 ?AfxOleRegisterServerClass@@YAHABU_GUID@@PBG11W4OLE_APPTYPE@@PAPBG3H1@Z
 ?AfxOleRegisterServerClass@@YAHABU_GUID@@PBG11W4OLE_APPTYPE@@PAPBG3H11@Z
 ?AfxOleRegisterServerClassCompat@@YAHABU_GUID@@PBG11W4OLE_APPTYPE@@PAPBG3@Z
 ?AfxOleRegisterTypeLib@@YAHPAUHINSTANCE__@@ABU_GUID@@PBG2@Z
 ?AfxOleTerm@@YAXH@Z
 ?AfxOleTermOrFreeLib@@YAXHH@Z
 ?AfxOleUnlockAllControls@@YAXXZ
 ?AfxOleUnlockControl@@YAHABU_GUID@@@Z
 ?AfxOleUnlockControl@@YAHPBG@Z
 ?AfxOleUnregisterClass@@YAHABU_GUID@@PBG@Z
 ?AfxOleUnregisterHelper@@YAHPBQBG0HPAUHKEY__@@@Z
 ?AfxOleUnregisterServerClass@@YAHABU_GUID@@PBG11W4OLE_APPTYPE@@PAPBG3@Z
 ?AfxOleUnregisterTypeLib@@YAHABU_GUID@@GGK@Z
 ?AfxSafeArrayInit@@YAXPAVCOleSafeArray@@@Z
 ?AfxThrowOleDispatchException@@YAXGII@Z
 ?AfxThrowOleDispatchException@@YAXGPBGI@Z
 ?AfxThrowOleException@@YAXJ@Z
 ?AfxThunkCLSIDFromProgID@@YAJPBGPAU_GUID@@@Z
 ?AfxThunkCLSIDFromString@@YAJPAGPAU_GUID@@@Z
 ?AfxThunkCoCreateInstance@@YAJABU_GUID@@PAPAUIUnknown@@K0PAPAX@Z
 ?AfxThunkCoDisconnectObject@@YAJPAUIUnknown@@K@Z
 ?AfxThunkCoFreeUnusedLibraries@@YAXXZ
 ?AfxThunkCoGetClassObject@@YAJABU_GUID@@KPAX0PAPAX@Z
 ?AfxThunkCoGetMalloc@@YAJKPAPAUIMalloc@@@Z
 ?AfxThunkCoInitialize@@YAJPAX@Z
 ?AfxThunkCoInitializeEx@@YAJPAXK@Z
 ?AfxThunkCoLockObjectExternal@@YAJPAUIUnknown@@HH@Z
 ?AfxThunkCoRegisterClassObject@@YAJABU_GUID@@PAUIUnknown@@KKPAK@Z
 ?AfxThunkCoRegisterMessageFilter@@YAJPAUIMessageFilter@@PAPAU1@@Z
 ?AfxThunkCoRevokeClassObject@@YAJK@Z
 ?AfxThunkCoTaskMemAlloc@@YAPAXK@Z
 ?AfxThunkCoTaskMemFree@@YAXPAX@Z
 ?AfxThunkCoTaskMemRealloc@@YAPAXPAXK@Z
 ?AfxThunkCoTreatAsClass@@YAJABU_GUID@@0@Z
 ?AfxThunkCoUninitialize@@YAXXZ
 ?AfxThunkCreateBindCtx@@YAJKPAPAUIBindCtx@@@Z
 ?AfxThunkCreateDataAdviseHolder@@YAJPAPAUIDataAdviseHolder@@@Z
 ?AfxThunkCreateFileMoniker@@YAJPBGPAPAUIMoniker@@@Z
 ?AfxThunkCreateGenericComposite@@YAJPAUIMoniker@@0PAPAU1@@Z
 ?AfxThunkCreateILockBytesOnHGlobal@@YAJPAXHPAPAUILockBytes@@@Z
 ?AfxThunkCreateItemMoniker@@YAJPBG0PAPAUIMoniker@@@Z
 ?AfxThunkCreateOleAdviseHolder@@YAJPAPAUIOleAdviseHolder@@@Z
 ?AfxThunkCreateStreamOnHGlobal@@YAJPAXHPAPAUIStream@@@Z
 ?AfxThunkDoDragDrop@@YAJPAUIDataObject@@PAUIDropSource@@KPAK@Z
 ?AfxThunkDosDateTimeToVariantTime@@YAHGGPAN@Z
 ?AfxThunkGetHGlobalFromILockBytes@@YAJPAUILockBytes@@PAPAX@Z
 ?AfxThunkGetRunningObjectTable@@YAJKPAPAUIRunningObjectTable@@@Z
 ?AfxThunkIsAccelerator@@YAHPAUHACCEL__@@HPAUtagMSG@@PAG@Z
 ?AfxThunkLoadRegTypeLib@@YAJABU_GUID@@GGKPAPAUITypeLib@@@Z
 ?AfxThunkLoadTypeLib@@YAJPBGPAPAUITypeLib@@@Z
 ?AfxThunkOleCreate@@YAJABU_GUID@@0KPAUtagFORMATETC@@PAUIOleClientSite@@PAUIStorage@@PAPAX@Z
 ?AfxThunkOleCreateDefaultHandler@@YAJABU_GUID@@PAUIUnknown@@0PAPAX@Z
 ?AfxThunkOleCreateFromData@@YAJPAUIDataObject@@ABU_GUID@@KPAUtagFORMATETC@@PAUIOleClientSite@@PAUIStorage@@PAPAX@Z
 ?AfxThunkOleCreateFromFile@@YAJABU_GUID@@PBG0KPAUtagFORMATETC@@PAUIOleClientSite@@PAUIStorage@@PAPAX@Z
 ?AfxThunkOleCreateLinkFromData@@YAJPAUIDataObject@@ABU_GUID@@KPAUtagFORMATETC@@PAUIOleClientSite@@PAUIStorage@@PAPAX@Z
 ?AfxThunkOleCreateLinkToFile@@YAJPBGABU_GUID@@KPAUtagFORMATETC@@PAUIOleClientSite@@PAUIStorage@@PAPAX@Z
 ?AfxThunkOleCreateMenuDescriptor@@YAPAXPAUHMENU__@@PAUtagOleMenuGroupWidths@@@Z
 ?AfxThunkOleCreateStaticFromData@@YAJPAUIDataObject@@ABU_GUID@@KPAUtagFORMATETC@@PAUIOleClientSite@@PAUIStorage@@PAPAX@Z
 ?AfxThunkOleDestroyMenuDescriptor@@YAJPAX@Z
 ?AfxThunkOleDuplicateData@@YAPAXPAXGI@Z
 ?AfxThunkOleFlushClipboard@@YAJXZ
 ?AfxThunkOleGetAutoConvert@@YAJABU_GUID@@PAU1@@Z
 ?AfxThunkOleGetClipboard@@YAJPAPAUIDataObject@@@Z
 ?AfxThunkOleGetIconOfClass@@YAPAXABU_GUID@@PAGH@Z
 ?AfxThunkOleIsCurrentClipboard@@YAJPAUIDataObject@@@Z
 ?AfxThunkOleIsRunning@@YAHPAUIOleObject@@@Z
 ?AfxThunkOleLoad@@YAJPAUIStorage@@ABU_GUID@@PAUIOleClientSite@@PAPAX@Z
 ?AfxThunkOleLoadFromStream@@YAJPAUIStream@@ABU_GUID@@PAPAX@Z
 ?AfxThunkOleLockRunning@@YAJPAUIUnknown@@HH@Z
 ?AfxThunkOleQueryCreateFromData@@YAJPAUIDataObject@@@Z
 ?AfxThunkOleQueryLinkFromData@@YAJPAUIDataObject@@@Z
 ?AfxThunkOleRegEnumVerbs@@YAJABU_GUID@@PAPAUIEnumOLEVERB@@@Z
 ?AfxThunkOleRegGetMiscStatus@@YAJABU_GUID@@KPAK@Z
 ?AfxThunkOleRegGetUserType@@YAJABU_GUID@@KPAPAG@Z
 ?AfxThunkOleRun@@YAJPAUIUnknown@@@Z
 ?AfxThunkOleSave@@YAJPAUIPersistStorage@@PAUIStorage@@H@Z
 ?AfxThunkOleSaveToStream@@YAJPAUIPersistStream@@PAUIStream@@@Z
 ?AfxThunkOleSetClipboard@@YAJPAUIDataObject@@@Z
 ?AfxThunkOleSetContainedObject@@YAJPAUIUnknown@@H@Z
 ?AfxThunkOleSetMenuDescriptor@@YAJPAXPAUHWND__@@1PAUIOleInPlaceFrame@@PAUIOleInPlaceActiveObject@@@Z
 ?AfxThunkOleTranslateAccelerator@@YAJPAUIOleInPlaceFrame@@PAUtagOIFI@@PAUtagMSG@@@Z
 ?AfxThunkOleUninitialize@@YAXXZ
 ?AfxThunkReadClassStg@@YAJPAUIStorage@@PAU_GUID@@@Z
 ?AfxThunkReadClassStm@@YAJPAUIStream@@PAU_GUID@@@Z
 ?AfxThunkReadFmtUserTypeStg@@YAJPAUIStorage@@PAGPAPAG@Z
 ?AfxThunkRegisterDragDrop@@YAJPAUHWND__@@PAUIDropTarget@@@Z
 ?AfxThunkRegisterTypeLib@@YAJPAUITypeLib@@PAG1@Z
 ?AfxThunkReleaseStgMedium@@YAXPAUtagSTGMEDIUM@@@Z
 ?AfxThunkRevokeDragDrop@@YAJPAUHWND__@@@Z
 ?AfxThunkSafeArrayAccessData@@YAJPAUtagSAFEARRAY@@PAPAX@Z
 ?AfxThunkSafeArrayAllocData@@YAJPAUtagSAFEARRAY@@@Z
 ?AfxThunkSafeArrayAllocDescriptor@@YAJIPAPAUtagSAFEARRAY@@@Z
 ?AfxThunkSafeArrayCopy@@YAJPAUtagSAFEARRAY@@PAPAU1@@Z
 ?AfxThunkSafeArrayCreate@@YAPAUtagSAFEARRAY@@GIPAUtagSAFEARRAYBOUND@@@Z
 ?AfxThunkSafeArrayDestroy@@YAJPAUtagSAFEARRAY@@@Z
 ?AfxThunkSafeArrayDestroyData@@YAJPAUtagSAFEARRAY@@@Z
 ?AfxThunkSafeArrayDestroyDescriptor@@YAJPAUtagSAFEARRAY@@@Z
 ?AfxThunkSafeArrayGetDim@@YAIPAUtagSAFEARRAY@@@Z
 ?AfxThunkSafeArrayGetElement@@YAJPAUtagSAFEARRAY@@PAJPAX@Z
 ?AfxThunkSafeArrayGetElemsize@@YAIPAUtagSAFEARRAY@@@Z
 ?AfxThunkSafeArrayGetLBound@@YAJPAUtagSAFEARRAY@@IPAJ@Z
 ?AfxThunkSafeArrayGetUBound@@YAJPAUtagSAFEARRAY@@IPAJ@Z
 ?AfxThunkSafeArrayLock@@YAJPAUtagSAFEARRAY@@@Z
 ?AfxThunkSafeArrayPtrOfIndex@@YAJPAUtagSAFEARRAY@@PAJPAPAX@Z
 ?AfxThunkSafeArrayPutElement@@YAJPAUtagSAFEARRAY@@PAJPAX@Z
 ?AfxThunkSafeArrayRedim@@YAJPAUtagSAFEARRAY@@PAUtagSAFEARRAYBOUND@@@Z
 ?AfxThunkSafeArrayUnaccessData@@YAJPAUtagSAFEARRAY@@@Z
 ?AfxThunkSafeArrayUnlock@@YAJPAUtagSAFEARRAY@@@Z
 ?AfxThunkSetConvertStg@@YAJPAUIStorage@@H@Z
 ?AfxThunkStgCreateDocfile@@YAJPBGKKPAPAUIStorage@@@Z
 ?AfxThunkStgCreateDocfileOnILockBytes@@YAJPAUILockBytes@@KKPAPAUIStorage@@@Z
 ?AfxThunkStgIsStorageFile@@YAJPBG@Z
 ?AfxThunkStgIsStorageILockBytes@@YAJPAUILockBytes@@@Z
 ?AfxThunkStgOpenStorage@@YAJPBGPAUIStorage@@KPAPAGKPAPAU1@@Z
 ?AfxThunkStgOpenStorageOnILockBytes@@YAJPAUILockBytes@@PAUIStorage@@KPAPAGKPAPAU2@@Z
 ?AfxThunkStringFromCLSID@@YAJABU_GUID@@PAPAG@Z
 ?AfxThunkStringFromGUID2@@YAHABU_GUID@@PAGH@Z
 ?AfxThunkSysAllocString@@YAPAGPBG@Z
 ?AfxThunkSysAllocStringByteLen@@YAPAGPBDI@Z
 ?AfxThunkSysAllocStringLen@@YAPAGPBGI@Z
 ?AfxThunkSysFreeString@@YAXPAG@Z
 ?AfxThunkSysReAllocStringLen@@YAHPAPAGPBGI@Z
 ?AfxThunkSysStringByteLen@@YAIPAG@Z
 ?AfxThunkSysStringLen@@YAIPAG@Z
 ?AfxThunkVarBstrFromCy@@YAJTtagCY@@KKPAPAG@Z
 ?AfxThunkVarBstrFromDate@@YAJNKKPAPAG@Z
 ?AfxThunkVarCyFromStr@@YAJPAGKKPATtagCY@@@Z
 ?AfxThunkVarDateFromStr@@YAJPAGKKPAN@Z
 ?AfxThunkVariantChangeType@@YAJPAUtagVARIANT@@0GG@Z
 ?AfxThunkVariantClear@@YAJPAUtagVARIANT@@@Z
 ?AfxThunkVariantCopy@@YAJPAUtagVARIANT@@0@Z
 ?AfxThunkWriteClassStg@@YAJPAUIStorage@@ABU_GUID@@@Z
 ?AfxThunkWriteClassStm@@YAJPAUIStream@@ABU_GUID@@@Z
 ?AfxThunkWriteFmtUserTypeStg@@YAJPAUIStorage@@GPAG@Z
 ?AfxUnmergeMenus@@YAXPAUHMENU__@@00@Z
 ?AfxVariantInit@@YAXPAUtagVARIANT@@@Z
 ?AfxWndProcDllOle@@YAJPAUHWND__@@IIJ@Z
 ?AllocData@COleSafeArray@@QAAXXZ
 ?AllocDescriptor@COleSafeArray@@QAAXK@Z
 ?AllocSysString@CString@@QBAPAGXZ
 ?AllocValue@CProperty@@AAAPAXK@Z
 ?AmbientAppearance@COleControl@@QAAFXZ
 ?AmbientBackColor@COleControl@@QAAKXZ
 ?AmbientDisplayName@COleControl@@QAA?AVCString@@XZ
 ?AmbientFont@COleControl@@QAAPAUIFontDisp@@XZ
 ?AmbientForeColor@COleControl@@QAAKXZ
 ?AmbientLocaleID@COleControl@@QAAKXZ
 ?AmbientScaleUnits@COleControl@@QAA?AVCString@@XZ
 ?AmbientShowGrabHandles@COleControl@@QAAHXZ
 ?AmbientShowHatching@COleControl@@QAAHXZ
 ?AmbientTextAlign@COleControl@@QAAFXZ
 ?AmbientUIDead@COleControl@@QAAHXZ
 ?AmbientUserMode@COleControl@@QAAHXZ
 ?Apply@XPropertyPage@COlePropertyPage@@UAAJXZ
 ?AssertValid@COleControl@@UBAXXZ
 ?AssertValid@COleDataSource@@UBAXXZ
 ?AssertValid@COleObjectFactory@@UBAXXZ
 ?AssertValid@COleStreamFile@@UBAXXZ
 ?Attach@COleSafeArray@@QAAXAAUtagVARIANT@@@Z
 ?Attach@COleStreamFile@@QAAXPAUIStream@@@Z
 ?Attach@COleVariant@@QAAXAAUtagVARIANT@@@Z
 ?AttachDispatch@COleDispatchDriver@@QAAXPAUIDispatch@@H@Z
 ?AttachWindow@COleControlSite@@IAAXXZ
 ?BoundPropertyChanged@COleControl@@QAAXJ@Z
 ?BoundPropertyRequestEdit@COleControl@@QAAHJ@Z
 ?ButtonDblClk@COleControl@@IAAXGIVCPoint@@@Z
 ?ButtonDown@COleControl@@IAAXGIVCPoint@@@Z
 ?ButtonUp@COleControl@@IAAXGIVCPoint@@@Z
 ?Cache@_AFXCTL_AMBIENT_CACHE@@QAAXPAUtagQACONTAINER@@@Z
 ?Cache@CTypeLibCache@@QAAXKPAUITypeLib@@@Z
 ?CacheData@COleDataSource@@QAAXGPAUtagSTGMEDIUM@@PAUtagFORMATETC@@@Z
 ?CacheGlobalData@COleDataSource@@QAAXGPAXPAUtagFORMATETC@@@Z
 ?CacheTypeInfo@CTypeLibCache@@QAAXKABU_GUID@@PAUITypeInfo@@@Z
 ?CallMemberFunc@CCmdTarget@@IAAJPBUAFX_DISPMAP_ENTRY@@GPAUtagVARIANT@@PAUtagDISPPARAMS@@PAI@Z
 ?CanInPlaceActivate@XOleIPSite@COleControlSite@@UAAJXZ
 ?ChangeType@COleVariant@@QAAXGPAUtagVARIANT@@@Z
 ?CharSetOfFace@@YAJPAUHDC__@@PAG1@Z
 ?CharSetOfFaceCallBack@@YAHPAUtagENUMLOGFONT@@PAUtagTEXTMETRICW@@HJ@Z
 ?CheckDlgButton@COleControlContainer@@UAAXHI@Z
 ?CheckRadioButton@COleControlContainer@@UAAXHHH@Z
 ?CheckRange@COleDateTime@@IAAXXZ
 ?CheckRange@COleDateTimeSpan@@QAAXXZ
 ?ChkName@CCeFont@@QAAJPAG@Z
 ?CleanupObjectArray@COlePropertyPage@@IAAXXZ
 ?Clear@COleSafeArray@@QAAXXZ
 ?Clear@COleVariant@@QAAXXZ
 ?ClientToParent@COleControl@@UBAXPBUtagRECT@@PAUtagPOINT@@@Z
 ?ClipCaretRect@COleControl@@QAAHPAUtagRECT@@@Z
 ?Clone@CCeFont@@UAAJPAPAUIFont@@@Z
 ?Clone@CStreamImp@@UAAJPAPAUIStream@@@Z
 ?Clone@XEnumVOID@CEnumArray@@UAAJPAPAUIEnumVOID@@@Z
 ?Close@COleStreamFile@@UAAXXZ
 ?Close@XOleObject@COleControl@@UAAJK@Z
 ?Commit@CStreamImp@@UAAJK@Z
 ?ConnectSink@COleControlSite@@IAAKABU_GUID@@PAUIUnknown@@@Z
 ?ContextSensitiveHelp@XOleInPlaceActiveObject@COleControl@@UAAJH@Z
 ?ContextSensitiveHelp@XOleInPlaceObject@COleControl@@UAAJH@Z
 ?ContextSensitiveHelp@XOleIPFrame@COleControlContainer@@UAAJH@Z
 ?ContextSensitiveHelp@XOleIPSite@COleControlSite@@UAAJH@Z
 ?ControlInfoChanged@COleControl@@QAAXXZ
 ?Copy@COleSafeArray@@QAAXPAPAUtagSAFEARRAY@@@Z
 ?CopyTo@CStreamImp@@UAAJPAUIStream@@T_ULARGE_INTEGER@@PAT3@2@Z
 ?Create@CControlFrameWnd@@UAAHPBG@Z
 ?Create@CDateTimeCtrl@@QAAHKABUtagRECT@@PAVCWnd@@I@Z
 ?Create@CMonthCalCtrl@@QAAHKABUtagPOINT@@PAVCWnd@@I@Z
 ?Create@CMonthCalCtrl@@QAAHKABUtagRECT@@PAVCWnd@@I@Z
 ?Create@COleSafeArray@@QAAXGKPAK@Z
 ?Create@COleSafeArray@@QAAXGKPAUtagSAFEARRAYBOUND@@@Z
 ?Create@CReflectorWnd@@QAAHABVCRect@@PAUHWND__@@@Z
 ?CreateConnectionArray@CConnectionPoint@@QAAXXZ
 ?CreateContainer@COccManager@@UAAPAVCOleControlContainer@@PAVCWnd@@@Z
 ?CreateControl@COleControlContainer@@QAAHPAVCWnd@@ABU_GUID@@PBGKABUtagRECT@@IPAVCFile@@HPAGPAPAVCOleControlSite@@@Z
 ?CreateControl@COleControlContainer@@QAAHPAVCWnd@@ABU_GUID@@PBGKPBUtagPOINT@@PBUtagSIZE@@IPAVCFile@@HPAGPAPAVCOleControlSite@@@Z
 ?CreateControl@COleControlSite@@QAAJPAVCWnd@@ABU_GUID@@PBGKABUtagRECT@@IPAVCFile@@HPAG@Z
 ?CreateControl@COleControlSite@@QAAJPAVCWnd@@ABU_GUID@@PBGKPBUtagPOINT@@PBUtagSIZE@@IPAVCFile@@HPAG@Z
 ?CreateControl@CWnd@@QAAHABU_GUID@@PBGKABUtagRECT@@PAV1@IPAVCFile@@HPAG@Z
 ?CreateControl@CWnd@@QAAHABU_GUID@@PBGKPBUtagPOINT@@PBUtagSIZE@@PAV1@IPAVCFile@@HPAG@Z
 ?CreateControl@CWnd@@QAAHPBG0KABUtagRECT@@PAV1@IPAVCFile@@HPAG@Z
 ?CreateControlWindow@COleControl@@MAAHPAUHWND__@@ABVCRect@@PBUtagRECT@@@Z
 ?CreateDispatch@COleDispatchDriver@@QAAHABU_GUID@@PAVCOleException@@@Z
 ?CreateDispatch@COleDispatchDriver@@QAAHPBGPAVCOleException@@@Z
 ?CreateDlgControl@COccManager@@IAAPAUHWND__@@PAVCWnd@@PAU2@HPAUDLGITEMTEMPLATE@@GPAEK@Z
 ?CreateDlgControls@COccManager@@UAAHPAVCWnd@@PAXPAU_AFX_OCC_DIALOG_INFO@@@Z
 ?CreateDlgControls@COccManager@@UAAHPAVCWnd@@PBGPAU_AFX_OCC_DIALOG_INFO@@@Z
 ?CreateFont@CCeFont@@SAJPAUtagFONTDESC@@ABU_GUID@@PAPAX@Z
 ?CreateFrameWindow@COleControl@@MAAPAVCControlFrameWnd@@XZ
 ?CreateInstance@XClassFactory@COleObjectFactory@@UAAJPAUIUnknown@@ABU_GUID@@PAPAX@Z
 ?CreateInstanceLic@XClassFactory@COleObjectFactory@@UAAJPAUIUnknown@@0ABU_GUID@@PAGPAPAX@Z
 ?CreateMatchingFont@CCeFont@@QAAJPAPAUHFONT__@@@Z
 ?CreateMemoryStream@COleStreamFile@@QAAHPAVCFileException@@@Z
 ?CreateObject@?$CProcessLocal@V_AFX_OLE_STATE@@@@SAPAVCNoTrackObject@@XZ
 ?CreateObject@?$CProcessLocal@VCOccManager@@@@SAPAVCNoTrackObject@@XZ
 ?CreateObject@?$CThreadLocal@V_AFXCTL_AMBIENT_CACHE@@@@SAPAVCNoTrackObject@@XZ
 ?CreateOleFont@COleControlContainer@@QAAXPAVCFont@@@Z
 ?CreateOneDim@COleSafeArray@@QAAXGKPBXJ@Z
 ?CreateOrLoad@COleControlSite@@IAAJABU_GUID@@PAVCFile@@HPAG@Z
 ?CreateSite@COccManager@@UAAPAVCOleControlSite@@PAVCOleControlContainer@@@Z
 ?CreateStream@COleStreamFile@@QAAHPAUIStorage@@PBGKPAVCFileException@@@Z
 ?CreateTracker@COleControl@@IAAXHH@Z
 ?CreateTracker@COleControl@@IAAXHHPBUtagRECT@@@Z
 ?CreateWindowForSubclassedControl@COleControl@@IAAXXZ
 ?DAdvise@XDataObject@COleDataSource@@UAAJPAUtagFORMATETC@@KPAUIAdviseSink@@PAK@Z
 ?DDP_CBIndex@@YAXPAVCDataExchange@@HAAHPBG@Z
 ?DDP_CBString@@YAXPAVCDataExchange@@HAAVCString@@PBG@Z
 ?DDP_CBStringExact@@YAXPAVCDataExchange@@HAAVCString@@PBG@Z
 ?DDP_Check@@YAXPAVCDataExchange@@HAAHPBG@Z
 ?DDP_EndCheck@@YAXPAVCDataExchange@@HPAHPBG@Z
 ?DDP_EndRadio@@YAXPAVCDataExchange@@HPAHPBG@Z
 ?DDP_EndText@@YAXPAVCDataExchange@@HPAEPBG@Z
 ?DDP_EndText@@YAXPAVCDataExchange@@HPAFPBG@Z
 ?DDP_EndText@@YAXPAVCDataExchange@@HPAHPBG@Z
 ?DDP_EndText@@YAXPAVCDataExchange@@HPAIPBG@Z
 ?DDP_EndText@@YAXPAVCDataExchange@@HPAJPBG@Z
 ?DDP_EndText@@YAXPAVCDataExchange@@HPAKPBG@Z
 ?DDP_EndText@@YAXPAVCDataExchange@@HPAMPBG@Z
 ?DDP_EndText@@YAXPAVCDataExchange@@HPANPBG@Z
 ?DDP_EndText@@YAXPAVCDataExchange@@HPAVCString@@PBG@Z
 ?DDP_LBIndex@@YAXPAVCDataExchange@@HAAHPBG@Z
 ?DDP_LBString@@YAXPAVCDataExchange@@HAAVCString@@PBG@Z
 ?DDP_LBStringExact@@YAXPAVCDataExchange@@HAAVCString@@PBG@Z
 ?DDP_PostProcessing@@YAXPAVCDataExchange@@@Z
 ?DDP_Radio@@YAXPAVCDataExchange@@HAAHPBG@Z
 ?DDP_Text@@YAXPAVCDataExchange@@HAAEPBG@Z
 ?DDP_Text@@YAXPAVCDataExchange@@HAAFPBG@Z
 ?DDP_Text@@YAXPAVCDataExchange@@HAAHPBG@Z
 ?DDP_Text@@YAXPAVCDataExchange@@HAAIPBG@Z
 ?DDP_Text@@YAXPAVCDataExchange@@HAAJPBG@Z
 ?DDP_Text@@YAXPAVCDataExchange@@HAAKPBG@Z
 ?DDP_Text@@YAXPAVCDataExchange@@HAAMPBG@Z
 ?DDP_Text@@YAXPAVCDataExchange@@HAANPBG@Z
 ?DDP_Text@@YAXPAVCDataExchange@@HAAVCString@@PBG@Z
 ?DDV_MinMaxDateTime@@YAXPAVCDataExchange@@AAVCOleDateTime@@PBV2@2@Z
 ?DDV_MinMaxDateTime@@YAXPAVCDataExchange@@AAVCTime@@PBV2@2@Z
 ?DDV_MinMaxMonth@@YAXPAVCDataExchange@@AAVCOleDateTime@@PBV2@2@Z
 ?DDV_MinMaxMonth@@YAXPAVCDataExchange@@AAVCTime@@PBV2@2@Z
 ?DDX_DateTimeCtrl@@YAXPAVCDataExchange@@HAAVCOleDateTime@@@Z
 ?DDX_DateTimeCtrl@@YAXPAVCDataExchange@@HAAVCTime@@@Z
 ?DDX_MonthCalCtrl@@YAXPAVCDataExchange@@HAAVCOleDateTime@@@Z
 ?DDX_MonthCalCtrl@@YAXPAVCDataExchange@@HAAVCTime@@@Z
 ?DDX_OCBool@@YAXPAVCDataExchange@@HJAAH@Z
 ?DDX_OCBoolRO@@YAXPAVCDataExchange@@HJAAH@Z
 ?DDX_OCColor@@YAXPAVCDataExchange@@HJAAK@Z
 ?DDX_OCColorRO@@YAXPAVCDataExchange@@HJAAK@Z
 ?DDX_OCFloat@@YAXPAVCDataExchange@@HJAAM@Z
 ?DDX_OCFloat@@YAXPAVCDataExchange@@HJAAN@Z
 ?DDX_OCFloatRO@@YAXPAVCDataExchange@@HJAAM@Z
 ?DDX_OCFloatRO@@YAXPAVCDataExchange@@HJAAN@Z
 ?DDX_OCInt@@YAXPAVCDataExchange@@HJAAH@Z
 ?DDX_OCInt@@YAXPAVCDataExchange@@HJAAJ@Z
 ?DDX_OCIntRO@@YAXPAVCDataExchange@@HJAAH@Z
 ?DDX_OCIntRO@@YAXPAVCDataExchange@@HJAAJ@Z
 ?DDX_OCShort@@YAXPAVCDataExchange@@HJAAF@Z
 ?DDX_OCShortRO@@YAXPAVCDataExchange@@HJAAF@Z
 ?DDX_OCText@@YAXPAVCDataExchange@@HJAAVCString@@@Z
 ?DDX_OCTextRO@@YAXPAVCDataExchange@@HJAAVCString@@@Z
 ?DDX_Text@@YAXPAVCDataExchange@@HAAVCOleCurrency@@@Z
 ?DDX_Text@@YAXPAVCDataExchange@@HAAVCOleDateTime@@@Z
 ?Deactivate@XPropertyPage@COlePropertyPage@@UAAJXZ
 ?DeactivateAndUndo@XOleIPSite@COleControlSite@@UAAJXZ
 ?DefWindowProcW@COleControl@@MAAJIIJ@Z
 ?DelayRenderData@COleDataSource@@QAAXGPAUtagFORMATETC@@@Z
 ?DelayRenderFileData@COleDataSource@@QAAXGPAUtagFORMATETC@@@Z
 ?DelaySetData@COleDataSource@@QAAXGPAUtagFORMATETC@@@Z
 ?Destroy@COleSafeArray@@QAAXXZ
 ?DestroyControl@COleControlSite@@UAAHXZ
 ?DestroyData@COleSafeArray@@QAAXXZ
 ?DestroyDescriptor@COleSafeArray@@QAAXXZ
 ?DestroyTracker@COleControl@@IAAXXZ
 ?Detach@COleSafeArray@@QAA?AUtagVARIANT@@XZ
 ?Detach@COleStreamFile@@QAAPAUIStream@@XZ
 ?Detach@COleVariant@@QAA?AUtagVARIANT@@XZ
 ?Detach@CWindowlessDC@@QAAPAUHDC__@@XZ
 ?DetachDispatch@COleDispatchDriver@@QAAPAUIDispatch@@XZ
 ?DetachWindow@COleControlSite@@IAAXXZ
 ?DiscardFont@CCeFont@@QAAJHJ@Z
 ?DiscardUndoState@XOleIPSite@COleControlSite@@UAAJXZ
 ?Disconnect@COleDispatchImpl@@UAAXXZ
 ?DisconnectSink@COleControlSite@@IAAXABU_GUID@@K@Z
 ?DisplayError@COleControl@@UAAXJPBG00I@Z
 ?DoClick@COleControl@@QAAXXZ
 ?DoOleVerb@CCmdTarget@@QAAHJPAUtagMSG@@PAUHWND__@@PBUtagRECT@@@Z
 ?DoPropExchange@COleControl@@UAAXPAVCPropExchange@@@Z
 ?DoSuperclassPaint@COleControl@@QAAXPAVCDC@@ABVCRect@@@Z
 ?DoVerb@COleControlSite@@UAAJJPAUtagMSG@@@Z
 ?DoVerb@XOleObject@COleControl@@UAAJJPAUtagMSG@@PAUIOleClientSite@@JPAUHWND__@@PBUtagRECT@@@Z
 ?Draw@XViewObject@COleControl@@UAAJKJPAXPAUtagDVTARGETDEVICE@@PAUHDC__@@2PBU_RECTL@@3P6AHK@ZK@Z
 ?DrawContent@COleControl@@IAAXPAVCDC@@AAVCRect@@@Z
 ?Dump@COleControl@@UBAXAAVCDumpContext@@@Z
 ?Dump@COleDataSource@@UBAXAAVCDumpContext@@@Z
 ?Dump@COleObjectFactory@@UBAXAAVCDumpContext@@@Z
 ?Dump@COleStreamFile@@UBAXAAVCDumpContext@@@Z
 ?DUnadvise@XDataObject@COleDataSource@@UAAJK@Z
 ?Duplicate@COleStreamFile@@UBAPAVCFile@@XZ
 ?EditProperty@XPropertyPage@COlePropertyPage@@UAAJJ@Z
 ?Empty@COleDataSource@@QAAXXZ
 ?EnableAggregation@CCmdTarget@@QAAXXZ
 ?EnableAutomation@CCmdTarget@@QAAXXZ
 ?EnableConnections@CCmdTarget@@QAAXXZ
 ?EnableModeless@XOleInPlaceActiveObject@COleControl@@UAAJH@Z
 ?EnableModeless@XOleIPFrame@COleControlContainer@@UAAJH@Z
 ?EnableSimpleFrame@COleControl@@QAAXXZ
 ?EnableTypeLib@CCmdTarget@@QAAXXZ
 ?EnableWindow@COleControlSite@@UAAHH@Z
 ?EnumAdvise@XOleObject@COleControl@@UAAJPAPAUIEnumSTATDATA@@@Z
 ?EnumChildProc@COlePropertyPage@@KAHPAUHWND__@@J@Z
 ?EnumConnectionPoints@COleConnPtContainer@@UAAJPAPAUIEnumConnectionPoints@@@Z
 ?EnumConnections@XConnPt@CConnectionPoint@@UAAJPAPAUIEnumConnections@@@Z
 ?EnumControls@COlePropertyPage@@KAHPAUHWND__@@J@Z
 ?EnumDAdvise@XDataObject@COleDataSource@@UAAJPAPAUIEnumSTATDATA@@@Z
 ?EnumFormatEtc@XDataObject@COleDataSource@@UAAJKPAPAUIEnumFORMATETC@@@Z
 ?EnumObjects@XOleContainer@COleControlContainer@@UAAJKPAPAUIEnumUnknown@@@Z
 ?EnumOleVerbs@CCmdTarget@@QAAHPAPAUIEnumOLEVERB@@@Z
 ?EnumVerbs@XOleObject@COleControl@@UAAJPAPAUIEnumOLEVERB@@@Z
 ?ExchangeBlobProp@CArchivePropExchange@@UAAHPBGPAPAXPAX@Z
 ?ExchangeBlobProp@CAsyncPropExchange@@UAAHPBGPAPAXPAX@Z
 ?ExchangeBlobProp@CPropbagPropExchange@@UAAHPBGPAPAXPAX@Z
 ?ExchangeBlobProp@CPropsetPropExchange@@UAAHPBGPAPAXPAX@Z
 ?ExchangeBlobProp@CResetPropExchange@@UAAHPBGPAPAXPAX@Z
 ?ExchangeExtent@COleControl@@QAAHPAVCPropExchange@@@Z
 ?ExchangeFontProp@CArchivePropExchange@@UAAHPBGAAVCFontHolder@@PBUtagFONTDESC@@PAUIFontDisp@@@Z
 ?ExchangeFontProp@CAsyncPropExchange@@UAAHPBGAAVCFontHolder@@PBUtagFONTDESC@@PAUIFontDisp@@@Z
 ?ExchangeFontProp@CPropbagPropExchange@@UAAHPBGAAVCFontHolder@@PBUtagFONTDESC@@PAUIFontDisp@@@Z
 ?ExchangeFontProp@CPropsetPropExchange@@UAAHPBGAAVCFontHolder@@PBUtagFONTDESC@@PAUIFontDisp@@@Z
 ?ExchangeFontProp@CResetPropExchange@@UAAHPBGAAVCFontHolder@@PBUtagFONTDESC@@PAUIFontDisp@@@Z
 ?ExchangePersistentProp@CArchivePropExchange@@UAAHPBGPAPAUIUnknown@@ABU_GUID@@PAU2@@Z
 ?ExchangePersistentProp@CAsyncPropExchange@@UAAHPBGPAPAUIUnknown@@ABU_GUID@@PAU2@@Z
 ?ExchangePersistentProp@CPropbagPropExchange@@UAAHPBGPAPAUIUnknown@@ABU_GUID@@PAU2@@Z
 ?ExchangePersistentProp@CPropsetPropExchange@@UAAHPBGPAPAUIUnknown@@ABU_GUID@@PAU2@@Z
 ?ExchangePersistentProp@CResetPropExchange@@UAAHPBGPAPAUIUnknown@@ABU_GUID@@PAU2@@Z
 ?ExchangeProp@CArchivePropExchange@@UAAHPBGGPAXPBX@Z
 ?ExchangeProp@CAsyncPropExchange@@UAAHPBGGPAXPBX@Z
 ?ExchangeProp@CPropbagPropExchange@@UAAHPBGGPAXPBX@Z
 ?ExchangeProp@CPropsetPropExchange@@UAAHPBGGPAXPBX@Z
 ?ExchangeProp@CResetPropExchange@@UAAHPBGGPAXPBX@Z
 ?ExchangeStockProps@COleControl@@QAAXPAVCPropExchange@@@Z
 ?ExchangeVersion@CAsyncPropExchange@@UAAHAAKKH@Z
 ?ExchangeVersion@COleControl@@QAAHPAVCPropExchange@@KH@Z
 ?ExchangeVersion@CPropExchange@@UAAHAAKKH@Z
 ?ExitInstance@COleControlModule@@UAAHXZ
 ?ExternalAddRef@CCmdTarget@@QAAKXZ
 ?ExternalDisconnect@CCmdTarget@@QAAXXZ
 ?ExternalQueryInterface@CCmdTarget@@QAAKPBXPAPAX@Z
 ?ExternalRelease@CCmdTarget@@QAAKXZ
 ?FindConnectionPoint@COleConnPtContainer@@UAAJABU_GUID@@PAPAUIConnectionPoint@@@Z
 ?FindItem@COleControlContainer@@UBAPAVCOleControlSite@@I@Z
 ?FindMatchingFont@CCeFont@@QAAJPAH@Z
 ?FireClick@COleControl@@QAAXXZ
 ?FireDblClick@COleControl@@QAAXXZ
 ?FireError@COleControl@@QAAXJPBGI@Z
 ?FireEvent@COleControl@@QAAXJPAEZZ
 ?FireEventV@COleControl@@IAAXJPAEPAD@Z
 ?FireKeyDown@COleControl@@QAAXPAGF@Z
 ?FireKeyPress@COleControl@@QAAXPAG@Z
 ?FireKeyUp@COleControl@@QAAXPAGF@Z
 ?FireMouseDown@COleControl@@QAAXFFJJ@Z
 ?FireMouseMove@COleControl@@QAAXFFJJ@Z
 ?FireMouseUp@COleControl@@QAAXFFJJ@Z
 ?FireReadyStateChange@COleControl@@QAAXXZ
 ?Flush@COleStreamFile@@UAAXXZ
 ?FontGetTextFace@CCeFont@@SAHPAUHDC__@@HPAG@Z
 ?FontGetTextMetrics@CCeFont@@SAHPAUHDC__@@PAUtagTEXTMETRICW@@@Z
 ?FontToCeFont@CFontHolder@@QAAXXZ
 ?Format@COleCurrency@@QBA?AVCString@@KK@Z
 ?Format@COleDateTime@@QBA?AVCString@@KK@Z
 ?ForwardActivationMsg@COleControl@@IAAXPAUtagMSG@@@Z
 ?FreeResource@@YAHPAX@Z
 ?FreeValue@CProperty@@AAAXXZ
 ?Freeze@XViewObject@COleControl@@UAAJKJPAXPAK@Z
 ?FreezeAllEvents@COleControlContainer@@QAAXH@Z
 ?FreezeEvents@COleControlSite@@QAAXH@Z
 ?FreezeEvents@XOleControl@COleControl@@UAAJH@Z
 ?FrEq@@YAHPAUFR@@0@Z
 ?FromIDispatch@CCmdTarget@@SAPAV1@PAUIDispatch@@@Z
 ?Get@CProperty@@QAAPAXPAK@Z
 ?Get@CProperty@@QAAPAXXZ
 ?Get@CPropertySection@@QAAPAXK@Z
 ?Get@CPropertySection@@QAAPAXKPAK@Z
 ?Get@CPropertySet@@QAAPAXU_GUID@@K@Z
 ?Get@CPropertySet@@QAAPAXU_GUID@@KPAK@Z
 ?get_Bold@CCeFont@@UAAJPAH@Z
 ?get_Charset@CCeFont@@UAAJPAF@Z
 ?get_hFont@CCeFont@@UAAJPAPAUHFONT__@@@Z
 ?get_Italic@CCeFont@@UAAJPAH@Z
 ?get_Name@CCeFont@@UAAJPAPAG@Z
 ?get_Size@CCeFont@@UAAJPATtagCY@@@Z
 ?get_Strikethrough@CCeFont@@UAAJPAH@Z
 ?get_Underline@CCeFont@@UAAJPAH@Z
 ?get_Weight@CCeFont@@UAAJPAF@Z
 ?GetActivationPolicy@COleControl@@UAAKXZ
 ?GetActivationPolicy@XPointerInactive@COleControl@@UAAJPAK@Z
 ?GetAdvise@XViewObject@COleControl@@UAAJPAK0PAPAUIAdviseSink@@@Z
 ?GetAmbientDispatchDriver@COleControl@@IAAPAVCOleDispatchDriver@@XZ
 ?GetAmbientProp@COleControlContainer@@UAAHPAVCOleControlSite@@JPAUtagVARIANT@@@Z
 ?GetAmbientProperty@COleControl@@QAAHJGPAX@Z
 ?GetAppearance@COleControl@@QAAFXZ
 ?GetArray@CAfxOleSymbolTable@@QAAPAPBGXZ
 ?GetAsSystemTime@COleDateTime@@QBAHAAU_SYSTEMTIME@@@Z
 ?GetAt@CAfxOleSymbolTable@@QBAPBGH@Z
 ?GetBackColor@COleControl@@QAAKXZ
 ?GetBlob@CBlobProperty@@QAAPAXXZ
 ?GetBorder@XOleIPFrame@COleControlContainer@@UAAJPAUtagRECT@@@Z
 ?GetBorderStyle@COleControl@@QAAFXZ
 ?GetByteOrder@CPropertySet@@QAAGXZ
 ?GetCacheEntry@COleDataSource@@IAAPAUAFX_DATACACHE_ENTRY@@PAUtagFORMATETC@@W4tagDATADIR@@@Z
 ?GetCanonicalFormatEtc@XDataObject@COleDataSource@@UAAJPAUtagFORMATETC@@0@Z
 ?GetCapture@COleControl@@QAAPAVCWnd@@XZ
 ?GetClassID@CBlobProperty@@UAAJPAU_GUID@@@Z
 ?GetClassID@CCeFont@@UAAJPAU_GUID@@@Z
 ?GetClassID@CCeFont@@W3AAJPAU_GUID@@@Z
 ?GetClassID@CCeFont@@W7AAJPAU_GUID@@@Z
 ?GetClassID@COleObjectFactory@@QBAABU_GUID@@XZ
 ?GetClassID@CPropertySet@@QAA?AU_GUID@@XZ
 ?GetClassID@XPersistMemory@COleControl@@UAAJPAU_GUID@@@Z
 ?GetClassID@XPersistPropertyBag@COleControl@@UAAJPAU_GUID@@@Z
 ?GetClassID@XPersistStorage@COleControl@@UAAJPAU_GUID@@@Z
 ?GetClassID@XPersistStreamInit@COleControl@@UAAJPAU_GUID@@@Z
 ?GetClassInfoW@XProvideClassInfo@COleControl@@UAAJPAPAUITypeInfo@@@Z
 ?GetClientOffset@COleControl@@UBAXPAJ0@Z
 ?GetClientRect@COleControl@@UBAXPAUtagRECT@@@Z
 ?GetClientSite@COleControl@@QAAPAUIOleClientSite@@XZ
 ?GetClientSite@XOleObject@COleControl@@UAAJPAPAUIOleClientSite@@@Z
 ?GetClipboardData@XOleObject@COleControl@@UAAJKPAPAUIDataObject@@@Z
 ?GetColor@CMonthCalCtrl@@QBAKH@Z
 ?GetColorSet@XViewObject@COleControl@@UAAJKJPAXPAUtagDVTARGETDEVICE@@PAUHDC__@@PAPAUtagLOGPALETTE@@@Z
 ?GetConnectionCount@CConnectionPoint@@QAAHXZ
 ?GetConnectionHook@COleControl@@MAAPAUIConnectionPoint@@ABU_GUID@@@Z
 ?GetConnectionInterface@XConnPt@CConnectionPoint@@UAAJPAU_GUID@@@Z
 ?GetConnectionMap@COleControl@@MBAPBUAFX_CONNECTIONMAP@@XZ
 ?GetConnectionPointContainer@XConnPt@CConnectionPoint@@UAAJPAPAUIConnectionPointContainer@@@Z
 ?GetConnections@CConnectionPoint@@QAAPBVCPtrArray@@XZ
 ?GetContainer@CConnectionPoint@@UAAPAUIConnectionPointContainer@@XZ
 ?GetContainer@XOleClientSite@COleControlSite@@UAAJPAPAUIOleContainer@@@Z
 ?GetContentExtent@XQuickActivate@COleControl@@UAAJPAUtagSIZE@@@Z
 ?GetControlFlags@COleControl@@UAAKXZ
 ?GetControlInfo@COleControlSite@@QAAXXZ
 ?GetControlInfo@XOleControl@COleControl@@UAAJPAUtagCONTROLINFO@@@Z
 ?GetControllingUnknown@CCmdTarget@@QAAPAUIUnknown@@XZ
 ?GetControlSize@COleControl@@QAAXPAH0@Z
 ?GetControlStatus@COlePropertyPage@@QAAHI@Z
 ?GetCount@CPropertySection@@QAAKXZ
 ?GetCount@CPropertySet@@QAAKXZ
 ?GetCurrentTime@COleDateTime@@SA?AV1@XZ
 ?GetCurSel@CMonthCalCtrl@@QBAHAAVCOleDateTime@@@Z
 ?GetCurSel@CMonthCalCtrl@@QBAHAAVCTime@@@Z
 ?GetCurSel@CMonthCalCtrl@@QBAHPAU_SYSTEMTIME@@@Z
 ?GetCursor@COleControlSite@@IAAJJPAPAUIUnknown@@PAPAX@Z
 ?GetData@?$CProcessLocal@V_AFX_OLE_STATE@@@@QAAPAV_AFX_OLE_STATE@@XZ
 ?GetData@?$CProcessLocal@VCOccManager@@@@QAAPAVCOccManager@@XZ
 ?GetData@?$CThreadLocal@V_AFXCTL_AMBIENT_CACHE@@@@QAAPAV_AFXCTL_AMBIENT_CACHE@@XZ
 ?GetData@XDataObject@COleDataSource@@UAAJPAUtagFORMATETC@@PAUtagSTGMEDIUM@@@Z
 ?GetDataHere@XDataObject@COleDataSource@@UAAJPAUtagFORMATETC@@PAUtagSTGMEDIUM@@@Z
 ?GetDataSource@COleControl@@IAAPAVCControlDataSource@1@XZ
 ?GetDay@COleDateTime@@QBAHXZ
 ?GetDayOfWeek@COleDateTime@@QBAHXZ
 ?GetDayOfYear@COleDateTime@@QBAHXZ
 ?GetDays@COleDateTimeSpan@@QBAJXZ
 ?GetDC@COleControl@@QAAPAVCDC@@PBUtagRECT@@K@Z
 ?GetDefBtnCode@COccManager@@SAKPAVCWnd@@@Z
 ?GetDefBtnCode@COleControlSite@@QAAKXZ
 ?GetDim@COleSafeArray@@QAAKXZ
 ?GetDispatchIID@COleControl@@MAAHPAU_GUID@@@Z
 ?GetDispatchMap@COleControlContainer@@MBAPBUAFX_DISPMAP@@XZ
 ?GetDispEntry@CCmdTarget@@IAAPBUAFX_DISPMAP_ENTRY@@J@Z
 ?GetDisplayString@CFontHolder@@QAAHAAVCString@@@Z
 ?GetDisplayString@XPerPropertyBrowsing@COleControl@@UAAJJPAPAG@Z
 ?GetDlgCtrlID@COleControlSite@@UBAHXZ
 ?GetDlgItem@COleControlContainer@@UBAPAVCWnd@@H@Z
 ?GetDlgItem@COleControlContainer@@UBAXHPAPAUHWND__@@@Z
 ?GetDlgItemInt@COleControlContainer@@UBAIHPAHH@Z
 ?GetDlgItemText@COleControlContainer@@UBAHHPAGH@Z
 ?GetDropTarget@XOleInPlaceObject@COleControl@@UAAJPAPAUIDropTarget@@@Z
 ?GetElement@COleSafeArray@@QAAXPAJPAX@Z
 ?GetElemSize@COleSafeArray@@QAAKXZ
 ?GetEnabled@COleControl@@QAAHXZ
 ?GetEntryCount@CCmdTarget@@KAIPBUAFX_DISPMAP@@@Z
 ?GetErrorMessage@COleDispatchException@@UAAHPAGIPAI@Z
 ?GetErrorMessage@COleException@@UAAHPAGIPAI@Z
 ?GetEventIID@COleControlSite@@QAAHPAU_GUID@@@Z
 ?GetEventMap@COleControl@@MBAPBUAFX_EVENTMAP@@XZ
 ?GetEventMapEntry@COleControl@@IBAPBUAFX_EVENTMAP_ENTRY@@PBGPAJ@Z
 ?GetEventSinkEntry@CCmdTarget@@IAAPBUAFX_EVENTSINKMAP_ENTRY@@IPAUAFX_EVENT@@@Z
 ?GetExStyle@COleControlSite@@UBAKXZ
 ?GetExtendedControl@COleControl@@QAAPAUIDispatch@@XZ
 ?GetExtendedControl@XOleControlSite@COleControlSite@@UAAJPAPAUIDispatch@@@Z
 ?GetExtent@XOleObject@COleControl@@UAAJKPAUtagSIZE@@@Z
 ?GetExtent@XViewObject@COleControl@@UAAJKJPAUtagDVTARGETDEVICE@@PAUtagSIZE@@@Z
 ?GetExtraConnectionPoints@COleControl@@MAAHPAVCPtrArray@@@Z
 ?GetFirstDayOfWeek@CMonthCalCtrl@@QBAHPAH@Z
 ?GetFocus@COleControl@@QAAPAVCWnd@@XZ
 ?GetFont@COleControl@@QAAPAUIFontDisp@@XZ
 ?GetFontDispatch@CFontHolder@@QAAPAUIFontDisp@@XZ
 ?GetFontHandle@CFontHolder@@QAAPAUHFONT__@@JJ@Z
 ?GetFontHandle@CFontHolder@@QAAPAUHFONT__@@XZ
 ?GetFontTextMetrics@COleControl@@QAAXPAUtagTEXTMETRICW@@AAVCFontHolder@@@Z
 ?GetForeColor@COleControl@@QAAKXZ
 ?GetFormatID@CPropertySection@@QAA?AU_GUID@@XZ
 ?GetFormatVersion@CPropertySet@@QAAGXZ
 ?GetGUID@XProvideClassInfo@COleControl@@UAAJKPAU_GUID@@@Z
 ?GetHead@?$CTypedSimpleList@PAUCRuntimeClass@@@@QAAPAUCRuntimeClass@@XZ
 ?GetHead@?$CTypedSimpleList@PAVCOleObjectFactory@@@@QAAPAVCOleObjectFactory@@XZ
 ?GetHead@CSimpleList@@QBAPAXXZ
 ?GetHour@COleDateTime@@QBAHXZ
 ?GetHours@COleDateTimeSpan@@QBAJXZ
 ?GetHwnd@COleControl@@QAAIXZ
 ?GetID@COleControlSite@@QAAIXZ
 ?GetID@CProperty@@QAAKXZ
 ?GetID@CPropertySection@@QAAHPBGPAK@Z
 ?GetIDispatch@CCmdTarget@@QAAPAUIDispatch@@H@Z
 ?GetIDsOfNames@CCeFont@@UAAJABU_GUID@@PAPAGIKPAJ@Z
 ?GetIDsOfNames@COleDispatchImpl@@UAAJABU_GUID@@PAPAGIKPAJ@Z
 ?GetIDsOfNames@XAmbientProps@COleControlSite@@UAAJABU_GUID@@PAPAGIKPAJ@Z
 ?GetIDsOfNames@XEventSink@COleControlSite@@UAAJABU_GUID@@PAPAGIKPAJ@Z
 ?GetIID@XEventConnPt@COleControl@@UAAABU_GUID@@XZ
 ?GetIID@XPropConnPt@COleControl@@UAAABU_GUID@@XZ
 ?GetInterface@CCmdTarget@@QAAPAUIUnknown@@PBX@Z
 ?GetInterface@CUnknown@@QAAJPAUIUnknown@@PAPAX@Z
 ?GetInterfaceHook@COleControl@@MAAPAUIUnknown@@PBX@Z
 ?GetInterfaceMap@CEnumConnections@@MBAPBUAFX_INTERFACEMAP@@XZ
 ?GetInterfaceMap@CEnumConnPoints@@MBAPBUAFX_INTERFACEMAP@@XZ
 ?GetInterfaceMap@CEnumOleVerb@@MBAPBUAFX_INTERFACEMAP@@XZ
 ?GetInterfaceMap@CEnumUnknown@@MBAPBUAFX_INTERFACEMAP@@XZ
 ?GetInterfaceMap@COleControl@@MBAPBUAFX_INTERFACEMAP@@XZ
 ?GetInterfaceMap@COleControlContainer@@MBAPBUAFX_INTERFACEMAP@@XZ
 ?GetInterfaceMap@COleControlSite@@MBAPBUAFX_INTERFACEMAP@@XZ
 ?GetInterfaceMap@COleDataSource@@MBAPBUAFX_INTERFACEMAP@@XZ
 ?GetInterfaceMap@COleObjectFactory@@MBAPBUAFX_INTERFACEMAP@@XZ
 ?GetInterfaceMap@COlePropertyPage@@MBAPBUAFX_INTERFACEMAP@@XZ
 ?GetLBound@COleSafeArray@@QAAXKPAJ@Z
 ?GetLength@COleStreamFile@@UBAKXZ
 ?GetLicenseKey@COleObjectFactory@@MAAHKPAPAG@Z
 ?GetLicInfo@XClassFactory@COleObjectFactory@@UAAJPAUtagLICINFO@@@Z
 ?GetList@CPropertySection@@QAAPAVCPtrList@@XZ
 ?GetList@CPropertySet@@QAAPAVCPtrList@@XZ
 ?GetMaxConnections@CConnectionPoint@@UAAHXZ
 ?GetMaxSelCount@CMonthCalCtrl@@QBAHXZ
 ?GetMessageMap@CControlFrameWnd@@MBAPBUAFX_MSGMAP@@XZ
 ?GetMessageMap@COleControl@@MBAPBUAFX_MSGMAP@@XZ
 ?GetMessageMap@COlePropertyPage@@MBAPBUAFX_MSGMAP@@XZ
 ?GetMessageString@COleControl@@UBAXIAAVCString@@@Z
 ?GetMinReqRect@CMonthCalCtrl@@QBAHPAUtagRECT@@@Z
 ?GetMinute@COleDateTime@@QBAHXZ
 ?GetMinutes@COleDateTimeSpan@@QBAJXZ
 ?GetMiscStatus@XOleObject@COleControl@@UAAJKPAK@Z
 ?GetMoniker@XOleClientSite@COleControlSite@@UAAJKKPAPAUIMoniker@@@Z
 ?GetMoniker@XOleObject@COleControl@@UAAJKKPAPAUIMoniker@@@Z
 ?GetMonth@COleDateTime@@QBAHXZ
 ?GetMonthCalColor@CDateTimeCtrl@@QBAKH@Z
 ?GetMonthCalCtrl@CDateTimeCtrl@@QBAPAVCMonthCalCtrl@@XZ
 ?GetMonthCalFont@CDateTimeCtrl@@QBAPAVCFont@@XZ
 ?GetMonthDelta@CMonthCalCtrl@@QBAHXZ
 ?GetMonthRange@CMonthCalCtrl@@QBAHAAVCOleDateTime@@0K@Z
 ?GetMonthRange@CMonthCalCtrl@@QBAHAAVCTime@@0K@Z
 ?GetMonthRange@CMonthCalCtrl@@QBAHPAU_SYSTEMTIME@@0K@Z
 ?GetNaturalExtent@XViewObject@COleControl@@UAAJKJPAUtagDVTARGETDEVICE@@PAUHDC__@@PAUtagExtentInfo@@PAUtagSIZE@@@Z
 ?GetNextConnection@CConnectionPoint@@QBAPAUIUnknown@@AAPAU__POSITION@@@Z
 ?GetNotSupported@CCmdTarget@@QAAXXZ
 ?GetNotSupported@COleControl@@QAAXXZ
 ?GetObjectArray@COlePropertyPage@@QAAPAPAUIDispatch@@PAK@Z
 ?GetOneDimSize@COleSafeArray@@QAAKXZ
 ?GetOSVersion@CPropertySet@@QAAKXZ
 ?GetOuterWindow@COleControl@@IBAPAVCWnd@@XZ
 ?GetOwner@CUnknown@@QAAPAUIUnknown@@XZ
 ?GetPageInfo@XPropertyPage@COlePropertyPage@@UAAJPAUtagPROPPAGEINFO@@@Z
 ?GetPages@XSpecifyPropertyPages@COleControl@@UAAJPAUtagCAUUID@@@Z
 ?GetPageSite@COlePropertyPage@@QAAPAUIPropertyPageSite@@XZ
 ?GetPosition@COleStreamFile@@UBAKXZ
 ?GetPredefinedStrings@XPerPropertyBrowsing@COleControl@@UAAJJPAUtagCALPOLESTR@@PAUtagCADWORD@@@Z
 ?GetPredefinedValue@XPerPropertyBrowsing@COleControl@@UAAJJKPAUtagVARIANT@@@Z
 ?GetPropCheck@COlePropertyPage@@QAAHPBGPAH@Z
 ?GetProperty@COleControlSite@@UBAXJGPAX@Z
 ?GetProperty@COleDispatchDriver@@QBAXJGPAX@Z
 ?GetProperty@CPropertySection@@QAAPAVCProperty@@K@Z
 ?GetProperty@CPropertySet@@QAAPAVCProperty@@U_GUID@@K@Z
 ?GetPropIndex@COlePropertyPage@@QAAHPBGPAH@Z
 ?GetPropPageIDs@COleControl@@MAAPAU_GUID@@AAK@Z
 ?GetPropRadio@COlePropertyPage@@QAAHPBGPAH@Z
 ?GetPropsetData@COleControl@@IAAHPAUtagFORMATETC@@PAUtagSTGMEDIUM@@ABU_GUID@@@Z
 ?GetPropText@COlePropertyPage@@QAAHPBGPAE@Z
 ?GetPropText@COlePropertyPage@@QAAHPBGPAF@Z
 ?GetPropText@COlePropertyPage@@QAAHPBGPAH@Z
 ?GetPropText@COlePropertyPage@@QAAHPBGPAI@Z
 ?GetPropText@COlePropertyPage@@QAAHPBGPAJ@Z
 ?GetPropText@COlePropertyPage@@QAAHPBGPAK@Z
 ?GetPropText@COlePropertyPage@@QAAHPBGPAM@Z
 ?GetPropText@COlePropertyPage@@QAAHPBGPAN@Z
 ?GetPropText@COlePropertyPage@@QAAHPBGPAVCString@@@Z
 ?GetRange@CDateTimeCtrl@@QBAKPAVCOleDateTime@@0@Z
 ?GetRange@CDateTimeCtrl@@QBAKPAVCTime@@0@Z
 ?GetRange@CMonthCalCtrl@@QBAKPAU_SYSTEMTIME@@0@Z
 ?GetRange@CMonthCalCtrl@@QBAKPAVCOleDateTime@@0@Z
 ?GetRange@CMonthCalCtrl@@QBAKPAVCTime@@0@Z
 ?GetRawValue@CProperty@@QAAPAXXZ
 ?GetReadyState@COleControl@@QAAJXZ
 ?GetRect@XViewObject@COleControl@@UAAJKPAU_RECTL@@@Z
 ?GetRectInContainer@COleControl@@QAAHPAUtagRECT@@@Z
 ?GetRuntimeClass@CDateTimeCtrl@@UBAPAUCRuntimeClass@@XZ
 ?GetRuntimeClass@CMonthCalCtrl@@UBAPAUCRuntimeClass@@XZ
 ?GetRuntimeClass@COleControl@@UBAPAUCRuntimeClass@@XZ
 ?GetRuntimeClass@COleControlModule@@UBAPAUCRuntimeClass@@XZ
 ?GetRuntimeClass@COleDispatchException@@UBAPAUCRuntimeClass@@XZ
 ?GetRuntimeClass@COleException@@UBAPAUCRuntimeClass@@XZ
 ?GetRuntimeClass@COleObjectFactory@@UBAPAUCRuntimeClass@@XZ
 ?GetRuntimeClass@COlePropertyPage@@UBAPAUCRuntimeClass@@XZ
 ?GetRuntimeClass@COleStreamFile@@UBAPAUCRuntimeClass@@XZ
 ?GetRuntimeClass@CWindowlessDC@@UBAPAUCRuntimeClass@@XZ
 ?GetSecond@COleDateTime@@QBAHXZ
 ?GetSeconds@COleDateTimeSpan@@QBAJXZ
 ?GetSection@CPropertySet@@QAAPAVCPropertySection@@U_GUID@@@Z
 ?GetSectionName@CPropertySection@@QAAPBGXZ
 ?GetSelRange@CMonthCalCtrl@@QBAHAAVCOleDateTime@@0@Z
 ?GetSelRange@CMonthCalCtrl@@QBAHAAVCTime@@0@Z
 ?GetSelRange@CMonthCalCtrl@@QBAHPAU_SYSTEMTIME@@0@Z
 ?GetSize@CPropertySection@@QAAKXZ
 ?GetSizeMax@CBlobProperty@@UAAJPAT_ULARGE_INTEGER@@@Z
 ?GetSizeMax@CCeFont@@UAAJPAT_ULARGE_INTEGER@@@Z
 ?GetSizeMax@CCeFont@@W3AAJPAT_ULARGE_INTEGER@@@Z
 ?GetSizeMax@XPersistMemory@COleControl@@UAAJPAK@Z
 ?GetSizeMax@XPersistStreamInit@COleControl@@UAAJPAT_ULARGE_INTEGER@@@Z
 ?GetStackSize@CCmdTarget@@KAIPBEG@Z
 ?GetStandardProp@CCmdTarget@@IAAXPBUAFX_DISPMAP_ENTRY@@PAUtagVARIANT@@PAI@Z
 ?GetStartPosition@CConnectionPoint@@QBAPAU__POSITION@@XZ
 ?GetStatus@COleCurrency@@QBA?AW4CurrencyStatus@1@XZ
 ?GetStatus@COleDateTime@@QBA?AW4DateTimeStatus@1@XZ
 ?GetStatus@COleDateTimeSpan@@QBA?AW4DateTimeSpanStatus@1@XZ
 ?GetStatus@COleStreamFile@@QBAHAAUCFileStatus@@@Z
 ?GetStockEventMask@COleControl@@IBAKXZ
 ?GetStockPropMask@COleControl@@IBAKXZ
 ?GetStockTextMetrics@COleControl@@QAAXPAUtagTEXTMETRICW@@@Z
 ?GetStorageName@COleStreamFile@@UBA?BVCString@@XZ
 ?GetStream@COleStreamFile@@QBAPAUIStream@@XZ
 ?GetStyle@COleControlSite@@UBAKXZ
 ?GetText@COleControl@@QAAPAGXZ
 ?GetTime@CDateTimeCtrl@@QBAHAAVCOleDateTime@@@Z
 ?GetTime@CDateTimeCtrl@@QBAKAAVCTime@@@Z
 ?GetTime@CDateTimeCtrl@@QBAKPAU_SYSTEMTIME@@@Z
 ?GetToday@CMonthCalCtrl@@QBAHAAVCOleDateTime@@@Z
 ?GetToday@CMonthCalCtrl@@QBAHAAVCTime@@@Z
 ?GetToday@CMonthCalCtrl@@QBAHPAU_SYSTEMTIME@@@Z
 ?GetTotalDays@COleDateTimeSpan@@QBANXZ
 ?GetTotalHours@COleDateTimeSpan@@QBANXZ
 ?GetTotalMinutes@COleDateTimeSpan@@QBANXZ
 ?GetTotalSeconds@COleDateTimeSpan@@QBANXZ
 ?GetType@CProperty@@QAAKXZ
 ?GetTypeInfo@CCeFont@@UAAJIKPAPAUITypeInfo@@@Z
 ?GetTypeInfo@COleDispatchImpl@@UAAJIKPAPAUITypeInfo@@@Z
 ?GetTypeInfo@XAmbientProps@COleControlSite@@UAAJIKPAPAUITypeInfo@@@Z
 ?GetTypeInfo@XEventSink@COleControlSite@@UAAJIKPAPAUITypeInfo@@@Z
 ?GetTypeInfoCount@CCeFont@@UAAJPAI@Z
 ?GetTypeInfoCount@COleDispatchImpl@@UAAJPAI@Z
 ?GetTypeInfoCount@XAmbientProps@COleControlSite@@UAAJPAI@Z
 ?GetTypeInfoCount@XEventSink@COleControlSite@@UAAJPAI@Z
 ?GetTypeInfoOfGuid@CCmdTarget@@QAAJKABU_GUID@@PAPAUITypeInfo@@@Z
 ?GetUBound@COleSafeArray@@QAAXKPAJ@Z
 ?GetUserClassID@XOleObject@COleControl@@UAAJPAU_GUID@@@Z
 ?GetUserType@COleControl@@IAAXPAG@Z
 ?GetUserType@XOleObject@COleControl@@UAAJKPAPAG@Z
 ?GetVersion@CPropExchange@@QAAKXZ
 ?GetViewStatus@XViewObject@COleControl@@UAAJPAK@Z
 ?GetWindow@XOleInPlaceActiveObject@COleControl@@UAAJPAPAUHWND__@@@Z
 ?GetWindow@XOleInPlaceObject@COleControl@@UAAJPAPAUHWND__@@@Z
 ?GetWindow@XOleIPFrame@COleControlContainer@@UAAJPAPAUHWND__@@@Z
 ?GetWindow@XOleIPSite@COleControlSite@@UAAJPAPAUHWND__@@@Z
 ?GetWindowContext@XOleIPSite@COleControlSite@@UAAJPAPAUIOleInPlaceFrame@@PAPAUIOleInPlaceUIWindow@@PAUtagRECT@@2PAUtagOIFI@@@Z
 ?GetWindowlessDropTarget@COleControl@@UAAPAUIDropTarget@@XZ
 ?GetWindowTextLengthW@COleControlSite@@UBAHXZ
 ?GetWindowTextW@COleControlSite@@UBAHPAGH@Z
 ?GetWindowTextW@COleControlSite@@UBAXAAVCString@@@Z
 ?GetYear@COleDateTime@@QBAHXZ
 ?HandsOffStorage@XPersistStorage@COleControl@@UAAJXZ
 ?Hdc@CCeFont@@SAPAUHDC__@@XZ
 ?Help@XPropertyPage@COlePropertyPage@@UAAJPBG@Z
 ?HitTest@CMonthCalCtrl@@QAAKPAUMCHITTESTINFO@@@Z
 ?IgnoreApply@COlePropertyPage@@QAAXI@Z
 ?IgnoreWindowMessage@COleControl@@IAAHIIJPAJ@Z
 ?InitControlContainer@CWnd@@IAAHXZ
 ?InitFontObject@CCeFont@@SAJXZ
 ?InitFromData@XOleObject@COleControl@@UAAJPAUIDataObject@@HK@Z
 ?InitializeFont@CFontHolder@@QAAXPBUtagFONTDESC@@PAUIDispatch@@@Z
 ?InitializeIIDs@COleControl@@QAAXPBU_GUID@@0@Z
 ?InitInstance@COleControlModule@@UAAHXZ
 ?InitNew@CCeFont@@UAAJXZ
 ?InitNew@CCeFont@@W3AAJXZ
 ?InitNew@XPersistMemory@COleControl@@UAAJXZ
 ?InitNew@XPersistPropertyBag@COleControl@@UAAJXZ
 ?InitNew@XPersistStorage@COleControl@@UAAJPAUIStorage@@@Z
 ?InitNew@XPersistStreamInit@COleControl@@UAAJXZ
 ?InitStockEventMask@COleControl@@IAAXXZ
 ?InitStockPropMask@COleControl@@IAAXXZ
 ?InPlaceDeactivate@XOleInPlaceObject@COleControl@@UAAJXZ
 ?InsertMenus@XOleIPFrame@COleControlContainer@@UAAJPAUHMENU__@@PAUtagOleMenuGroupWidths@@@Z
 ?InternalAddRef@CCmdTarget@@QAAKXZ
 ?InternalAddRef@CUnknown@@UAAKXZ
 ?InternalGetFont@COleControl@@QAAAAVCFontHolder@@XZ
 ?InternalGetText@COleControl@@QAAABVCString@@XZ
 ?InternalQueryInterface@CCeFont@@UAAJABU_GUID@@PAPAX@Z
 ?InternalQueryInterface@CCmdTarget@@QAAKPBXPAPAX@Z
 ?InternalQueryInterface@CUnknown@@UAAJABU_GUID@@PAPAX@Z
 ?InternalRelease@CCmdTarget@@QAAKXZ
 ?InternalRelease@CUnknown@@UAAKXZ
 ?InternalSetReadyState@COleControl@@QAAXJ@Z
 ?InvalidateControl@COleControl@@QAAXPBUtagRECT@@H@Z
 ?InvalidateRgn@COleControl@@QAAXPAVCRgn@@H@Z
 ?Invoke@CCeFont@@UAAJJABU_GUID@@KGPAUtagDISPPARAMS@@PAUtagVARIANT@@PAUtagEXCEPINFO@@PAI@Z
 ?Invoke@COleDispatchImpl@@UAAJJABU_GUID@@KGPAUtagDISPPARAMS@@PAUtagVARIANT@@PAUtagEXCEPINFO@@PAI@Z
 ?Invoke@XAmbientProps@COleControlSite@@UAAJJABU_GUID@@KGPAUtagDISPPARAMS@@PAUtagVARIANT@@PAUtagEXCEPINFO@@PAI@Z
 ?Invoke@XEventSink@COleControlSite@@UAAJJABU_GUID@@KGPAUtagDISPPARAMS@@PAUtagVARIANT@@PAUtagEXCEPINFO@@PAI@Z
 ?InvokeHelper@COleControlSite@@UAAXJGGPAXPBEZZ
 ?InvokeHelper@COleDispatchDriver@@QAAXJGGPAXPBEZZ
 ?InvokeHelperV@COleControlSite@@UAAXJGGPAXPBEPAD@Z
 ?InvokeHelperV@COleDispatchDriver@@QAAXJGGPAXPBEPAD@Z
 ?IsAsynchronous@CPropExchange@@QAAHXZ
 ?IsConvertingVBX@COleControl@@QAAHXZ
 ?IsDefaultButton@COleControlSite@@QAAHXZ
 ?IsDialogMessageW@COccManager@@UAAHPAVCWnd@@PAUtagMSG@@@Z
 ?IsDirty@CBlobProperty@@UAAJXZ
 ?IsDirty@CCeFont@@UAAJXZ
 ?IsDirty@CCeFont@@W3AAJXZ
 ?IsDirty@XPersistMemory@COleControl@@UAAJXZ
 ?IsDirty@XPersistStorage@COleControl@@UAAJXZ
 ?IsDirty@XPersistStreamInit@COleControl@@UAAJXZ
 ?IsDlgButtonChecked@COleControlContainer@@UBAIH@Z
 ?IsEmpty@CSimpleList@@QBAHXZ
 ?IsEqual@CCeFont@@UAAJPAUIFont@@@Z
 ?IsEqualGUID@@YAHABU_GUID@@0@Z
 ?IsInvokeAllowed@COleControl@@MAAHJ@Z
 ?IsLabelControl@COccManager@@SAHPAVCWnd@@@Z
 ?IsLicenseValid@COleObjectFactory@@QAAHXZ
 ?IsLoading@CPropExchange@@QAAHXZ
 ?IsMatchingMnemonic@COccManager@@SAHPAVCWnd@@PAUtagMSG@@@Z
 ?IsMatchingMnemonic@COleControlSite@@QAAHPAUtagMSG@@@Z
 ?IsModified@COleControl@@QAAHXZ
 ?IsModified@COlePropertyPage@@QAAHXZ
 ?IsOptimizedDraw@COleControl@@QAAHXZ
 ?IsPageDirty@XPropertyPage@COlePropertyPage@@UAAJXZ
 ?IsRegistered@COleObjectFactory@@UBAHXZ
 ?IsResultExpected@CCmdTarget@@QAAHXZ
 ?IsSubclassedControl@COleControl@@UAAHXZ
 ?IsUpToDate@XOleObject@COleControl@@UAAJXZ
 ?IsWindowEnabled@COleControlSite@@UBAHXZ
 ?KeyDown@COleControl@@IAAXPAG@Z
 ?KeyUp@COleControl@@IAAXPAG@Z
 ?Load@CBlobProperty@@UAAJPAUIStream@@@Z
 ?Load@CCeFont@@UAAJPAUIPropertyBag@@PAUIErrorLog@@@Z
 ?Load@CCeFont@@UAAJPAUIStream@@@Z
 ?Load@CCeFont@@W3AAJPAUIStream@@@Z
 ?Load@CStreamImp@@QAAJPAX@Z
 ?Load@XPersistMemory@COleControl@@UAAJPAXK@Z
 ?Load@XPersistPropertyBag@COleControl@@UAAJPAUIPropertyBag@@PAUIErrorLog@@@Z
 ?Load@XPersistStorage@COleControl@@UAAJPAUIStorage@@@Z
 ?Load@XPersistStreamInit@COleControl@@UAAJPAUIStream@@@Z
 ?LoadState@COleControl@@IAAJPAUIStream@@@Z
 ?Lock@COleSafeArray@@QAAXXZ
 ?Lock@CTypeLibCache@@QAAXXZ
 ?Lock@CUnknown@@UAAXXZ
 ?LockContainer@XOleContainer@COleControlContainer@@UAAJH@Z
 ?LockInPlaceActive@COleControl@@QAAHH@Z
 ?LockInPlaceActive@XOleControlSite@COleControlSite@@UAAJH@Z
 ?LockRange@COleStreamFile@@UAAXKK@Z
 ?LockRegion@CStreamImp@@UAAJT_ULARGE_INTEGER@@0K@Z
 ?LockServer@XClassFactory@COleObjectFactory@@UAAJH@Z
 ?Lookup@COleDataSource@@IBAPAUAFX_DATACACHE_ENTRY@@PAUtagFORMATETC@@W4tagDATADIR@@@Z
 ?Lookup@CTypeLibCache@@QAAHKPAPAUITypeLib@@@Z
 ?LookupTypeInfo@CTypeLibCache@@QAAHKABU_GUID@@PAPAUITypeInfo@@@Z
 ?MapPropertyToPage@XPerPropertyBrowsing@COleControl@@UAAJJPAU_GUID@@@Z
 ?MemberIDFromName@CCmdTarget@@KAJPBUAFX_DISPMAP@@PBG@Z
 ?MessageBoxW@COlePropertyPage@@QAAHPBG0I@Z
 ?ModifyStyle@COleControlSite@@UAAHKKI@Z
 ?ModifyStyleEx@COleControlSite@@UAAHKKI@Z
 ?Move@XPropertyPage@COlePropertyPage@@UAAJPBUtagRECT@@@Z
 ?MoveWindow@COleControlSite@@UAAXHHHHH@Z
 ?NewFcr@CCeFont@@QAAJPAH@Z
 ?Next@XEnumVOID@CEnumArray@@UAAJKPAXPAK@Z
 ?ocscpy@@YAPAGPAGPBG@Z
 ?ocslen@@YAIPBG@Z
 ?OLE2CT@@YAPBGPBG@Z
 ?OLE2T@@YAPAGPAG@Z
 ?OnActivate@CControlFrameWnd@@IAAXIPAVCWnd@@H@Z
 ?OnActivateInPlace@COleControl@@MAAJHPAUtagMSG@@@Z
 ?OnAdvise@CConnectionPoint@@UAAXH@Z
 ?OnAdvise@XEventConnPt@COleControl@@UAAXH@Z
 ?OnAmbientPropertyChange@COleControl@@UAAXJ@Z
 ?OnAmbientPropertyChange@XOleControl@COleControl@@UAAJJ@Z
 ?OnAppearanceChanged@COleControl@@UAAXXZ
 ?OnBackColorChanged@COleControl@@UAAXXZ
 ?OnBorderStyleChanged@COleControl@@UAAXXZ
 ?OnButtonDblClk@COleControl@@IAAXGIVCPoint@@@Z
 ?OnButtonDown@COleControl@@IAAXGIVCPoint@@@Z
 ?OnButtonUp@COleControl@@IAAXGIVCPoint@@@Z
 ?OnCancelMode@COleControl@@IAAXXZ
 ?OnChanged@XFontNotification@COleControl@@UAAJJ@Z
 ?OnChanged@XPropertyNotifySink@COleControlSite@@UAAJJ@Z
 ?OnChanged@XPropNotifySink@COlePropertyPage@@UAAJJ@Z
 ?OnChar@COleControl@@IAAXIII@Z
 ?OnClick@COleControl@@UAAXG@Z
 ?OnClone@CEnumArray@@MAAPAV1@XZ
 ?OnClone@CEnumConnections@@MAAPAVCEnumArray@@XZ
 ?OnClose@CControlFrameWnd@@IAAXXZ
 ?OnClose@COleControl@@UAAXK@Z
 ?OnCommand@COlePropertyPage@@MAAHIJ@Z
 ?OnControlInfoChanged@XOleControlSite@COleControlSite@@UAAJXZ
 ?OnCreate@COleControl@@IAAHPAUtagCREATESTRUCTW@@@Z
 ?OnCreateAggregates@COleControl@@MAAHXZ
 ?OnCreateObject@COleObjectFactory@@MAAPAVCCmdTarget@@XZ
 ?OnCtlColor@COlePropertyPage@@IAAPAUHBRUSH__@@PAVCDC@@PAVCWnd@@I@Z
 ?OnDestroy@COleControl@@IAAXXZ
 ?OnDocWindowActivate@XOleInPlaceActiveObject@COleControl@@UAAJH@Z
 ?OnDoVerb@COleControl@@UAAHJPAUtagMSG@@PAUHWND__@@PBUtagRECT@@@Z
 ?OnDraw@COleControl@@UAAXPAVCDC@@ABVCRect@@1@Z
 ?OnDrawMetafile@COleControl@@UAAXPAVCDC@@ABVCRect@@@Z
 ?OnEdit@COleControl@@UAAHPAUtagMSG@@PAUHWND__@@PBUtagRECT@@@Z
 ?OnEditProperty@COlePropertyPage@@UAAHJ@Z
 ?OnEnabledChanged@COleControl@@UAAXXZ
 ?OnEnterIdle@COleControl@@IAAXIPAVCWnd@@@Z
 ?OnEnumVerbs@COleControl@@UAAHPAPAUIEnumOLEVERB@@@Z
 ?OnEraseBkgnd@COleControl@@IAAHPAVCDC@@@Z
 ?OnEvent@CCmdTarget@@QAAHIPAUAFX_EVENT@@PAUAFX_CMDHANDLERINFO@@@Z
 ?OnEvent@COccManager@@UAAHPAVCCmdTarget@@IPAUAFX_EVENT@@PAUAFX_CMDHANDLERINFO@@@Z
 ?OnEvent@COleControlSite@@IAAHPAUAFX_EVENT@@@Z
 ?OnEventAdvise@COleControl@@UAAXH@Z
 ?OnFinalRelease@COleControl@@MAAXXZ
 ?OnFinalRelease@COlePropertyPage@@MAAXXZ
 ?OnFocus@XOleControlSite@COleControlSite@@UAAJH@Z
 ?OnFontChanged@COleControl@@UAAXXZ
 ?OnForeColorChanged@COleControl@@UAAXXZ
 ?OnFrameClose@COleControl@@MAAXXZ
 ?OnFrameWindowActivate@XOleInPlaceActiveObject@COleControl@@UAAJH@Z
 ?OnFreezeEvents@COleControl@@UAAXH@Z
 ?OnGetColorSet@COleControl@@UAAHPAUtagDVTARGETDEVICE@@PAUHDC__@@PAPAUtagLOGPALETTE@@@Z
 ?OnGetControlInfo@COleControl@@UAAXPAUtagCONTROLINFO@@@Z
 ?OnGetDisplayString@COleControl@@UAAHJAAVCString@@@Z
 ?OnGetDlgCode@COleControl@@IAAIXZ
 ?OnGetNaturalExtent@COleControl@@UAAHKJPAUtagDVTARGETDEVICE@@PAUHDC__@@PAUtagExtentInfo@@PAUtagSIZE@@@Z
 ?OnGetPredefinedStrings@COleControl@@UAAHJPAVCStringArray@@PAVCDWordArray@@@Z
 ?OnGetPredefinedValue@COleControl@@UAAHJKPAUtagVARIANT@@@Z
 ?OnGetViewExtent@COleControl@@UAAHKJPAUtagDVTARGETDEVICE@@PAUtagSIZE@@@Z
 ?OnGetViewRect@COleControl@@UAAHKPAU_RECTL@@@Z
 ?OnGetViewStatus@COleControl@@UAAKXZ
 ?OnHelp@COlePropertyPage@@UAAHPBG@Z
 ?OnHide@COleControl@@MAAJXZ
 ?OnInactiveMouseMove@COleControl@@UAAXPBUtagRECT@@JJK@Z
 ?OnInactiveMouseMove@XPointerInactive@COleControl@@UAAJPBUtagRECT@@JJK@Z
 ?OnInactiveSetCursor@COleControl@@UAAHPBUtagRECT@@JJKH@Z
 ?OnInactiveSetCursor@XPointerInactive@COleControl@@UAAJPBUtagRECT@@JJKH@Z
 ?OnInitDialog@COlePropertyPage@@UAAHXZ
 ?OnInitMenuPopup@COleControl@@IAAXPAVCMenu@@IH@Z
 ?OnInPlaceActivate@XOleIPSite@COleControlSite@@UAAJXZ
 ?OnInPlaceDeactivate@XOleIPSite@COleControlSite@@UAAJXZ
 ?OnKeyDown@COleControl@@IAAXIII@Z
 ?OnKeyDownEvent@COleControl@@UAAXGG@Z
 ?OnKeyPressEvent@COleControl@@UAAXG@Z
 ?OnKeyUp@COleControl@@IAAXIII@Z
 ?OnKeyUpEvent@COleControl@@UAAXGG@Z
 ?OnKillFocus@COleControl@@IAAXPAVCWnd@@@Z
 ?OnLButtonDblClk@COleControl@@IAAXIVCPoint@@@Z
 ?OnLButtonDown@COleControl@@IAAXIVCPoint@@@Z
 ?OnLButtonUp@COleControl@@IAAXIVCPoint@@@Z
 ?OnMapPropertyToPage@COleControl@@UAAHJPAU_GUID@@PAH@Z
 ?OnMButtonDblClk@COleControl@@IAAXIVCPoint@@@Z
 ?OnMButtonDown@COleControl@@IAAXIVCPoint@@@Z
 ?OnMButtonUp@COleControl@@IAAXIVCPoint@@@Z
 ?OnMenuSelect@COleControl@@IAAXIIPAUHMENU__@@@Z
 ?OnMnemonic@COleControl@@UAAXPAUtagMSG@@@Z
 ?OnMnemonic@XOleControl@COleControl@@UAAJPAUtagMSG@@@Z
 ?OnMouseMove@COleControl@@IAAXIVCPoint@@@Z
 ?OnMove@COleControl@@IAAXHH@Z
 ?OnNext@CEnumArray@@MAAHPAX@Z
 ?OnNext@CEnumConnections@@MAAHPAX@Z
 ?OnNext@CEnumConnPoints@@MAAHPAX@Z
 ?OnNext@CEnumOleVerb@@MAAHPAX@Z
 ?OnNext@CEnumUnknown@@MAAHPAX@Z
 ?OnObjectsChanged@COlePropertyPage@@UAAXXZ
 ?OnOcmCtlColorBtn@COleControl@@IAAJIJ@Z
 ?OnOcmCtlColorDlg@COleControl@@IAAJIJ@Z
 ?OnOcmCtlColorEdit@COleControl@@IAAJIJ@Z
 ?OnOcmCtlColorListBox@COleControl@@IAAJIJ@Z
 ?OnOcmCtlColorMsgBox@COleControl@@IAAJIJ@Z
 ?OnOcmCtlColorScrollBar@COleControl@@IAAJIJ@Z
 ?OnOcmCtlColorStatic@COleControl@@IAAJIJ@Z
 ?OnOpen@COleControl@@MAAJHPAUtagMSG@@@Z
 ?OnPaint@COleControl@@IAAXPAVCDC@@@Z
 ?OnPosRectChange@XOleIPSite@COleControlSite@@UAAJPBUtagRECT@@@Z
 ?OnProperties@COleControl@@UAAHPAUtagMSG@@PAUHWND__@@PBUtagRECT@@@Z
 ?OnQueryHitPoint@COleControl@@UAAHKPBUtagRECT@@UtagPOINT@@JPAK@Z
 ?OnQueryHitRect@COleControl@@UAAHKPBUtagRECT@@0JPAK@Z
 ?OnRButtonDblClk@COleControl@@IAAXIVCPoint@@@Z
 ?OnRButtonDown@COleControl@@IAAXIVCPoint@@@Z
 ?OnRButtonUp@COleControl@@IAAXIVCPoint@@@Z
 ?OnReflectorDestroyed@COleControl@@MAAXXZ
 ?OnRenderData@CControlDataSource@COleControl@@MAAHPAUtagFORMATETC@@PAUtagSTGMEDIUM@@@Z
 ?OnRenderData@COleControl@@UAAHPAUtagFORMATETC@@PAUtagSTGMEDIUM@@@Z
 ?OnRenderData@COleDataSource@@UAAHPAUtagFORMATETC@@PAUtagSTGMEDIUM@@@Z
 ?OnRenderFileData@CControlDataSource@COleControl@@MAAHPAUtagFORMATETC@@PAVCFile@@@Z
 ?OnRenderFileData@COleControl@@UAAHPAUtagFORMATETC@@PAVCFile@@@Z
 ?OnRenderFileData@COleDataSource@@UAAHPAUtagFORMATETC@@PAVCFile@@@Z
 ?OnRenderGlobalData@CControlDataSource@COleControl@@MAAHPAUtagFORMATETC@@PAPAX@Z
 ?OnRenderGlobalData@COleControl@@UAAHPAUtagFORMATETC@@PAPAX@Z
 ?OnRenderGlobalData@COleDataSource@@UAAHPAUtagFORMATETC@@PAPAX@Z
 ?OnRequestEdit@XFontNotification@COleControl@@UAAJJ@Z
 ?OnRequestEdit@XPropertyNotifySink@COleControlSite@@UAAJJ@Z
 ?OnRequestEdit@XPropNotifySink@COlePropertyPage@@UAAJJ@Z
 ?OnReset@CEnumArray@@MAAXXZ
 ?OnResetState@COleControl@@UAAXXZ
 ?OnSetClientSite@COleControl@@UAAXXZ
 ?OnSetCursor@COleControl@@IAAHPAVCWnd@@II@Z
 ?OnSetData@CControlDataSource@COleControl@@MAAHPAUtagFORMATETC@@PAUtagSTGMEDIUM@@H@Z
 ?OnSetData@COleControl@@UAAHPAUtagFORMATETC@@PAUtagSTGMEDIUM@@H@Z
 ?OnSetData@COleDataSource@@UAAHPAUtagFORMATETC@@PAUtagSTGMEDIUM@@H@Z
 ?OnSetExtent@COleControl@@UAAHPAUtagSIZE@@@Z
 ?OnSetFocus@COleControl@@IAAXPAVCWnd@@@Z
 ?OnSetMessageString@COleControl@@IAAJIJ@Z
 ?OnSetObjectRects@COleControl@@UAAHPBUtagRECT@@0@Z
 ?OnSetPageSite@COlePropertyPage@@UAAXXZ
 ?OnSetText@COleControl@@IAAJIJ@Z
 ?OnShowWindow@COleControl@@IAAXHI@Z
 ?OnShowWindow@XOleClientSite@COleControlSite@@UAAJH@Z
 ?OnSize@COleControl@@IAAXIHH@Z
 ?OnSkip@CEnumArray@@MAAHXZ
 ?OnSysKeyDown@COleControl@@IAAXIII@Z
 ?OnSysKeyUp@COleControl@@IAAXIII@Z
 ?OnTextChanged@COleControl@@UAAXXZ
 ?OnUIActivate@COleControlContainer@@UAAXPAVCOleControlSite@@@Z
 ?OnUIActivate@XOleIPSite@COleControlSite@@UAAJXZ
 ?OnUIDeactivate@COleControlContainer@@UAAXPAVCOleControlSite@@@Z
 ?OnUIDeactivate@XOleIPSite@COleControlSite@@UAAJH@Z
 ?OnWindowlessMessage@COleControl@@UAAHIIJPAJ@Z
 ?OnWindowMessage@XOleInPlaceObject@COleControl@@UAAJIIJPAJ@Z
 ?OpenStream@COleStreamFile@@QAAHPAUIStorage@@PBGKPAVCFileException@@@Z
 ?ParentToClient@COleControl@@UBAIPBUtagRECT@@PAUtagPOINT@@H@Z
 ?ParseCurrency@COleCurrency@@QAAHPBGKK@Z
 ?ParseDateTime@COleDateTime@@QAAHPBGKK@Z
 ?ParseDisplayName@XOleContainer@COleControlContainer@@UAAJPAUIBindCtx@@PAGPAKPAPAUIMoniker@@@Z
 ?PostCreateDialog@COccManager@@UAAXPAU_AFX_OCC_DIALOG_INFO@@@Z
 ?PostModalDialog@COleControl@@QAAXPAUHWND__@@@Z
 ?PostNcDestroy@CControlFrameWnd@@MAAXXZ
 ?PostNcDestroy@CReflectorWnd@@MAAXXZ
 ?PreCreateDialog@COccManager@@UAAPBUDLGTEMPLATE@@PAU_AFX_OCC_DIALOG_INFO@@PBU2@@Z
 ?PreCreateWindow@CControlFrameWnd@@UAAHAAUtagCREATESTRUCTW@@@Z
 ?PreModalDialog@COleControl@@QAAXPAUHWND__@@@Z
 ?PrepareOleCtrl@CDataExchange@@QAAPAVCWnd@@H@Z
 ?PreTranslateMessage@COlePropertyPage@@MAAHPAUtagMSG@@@Z
 ?Process@COleDispatchException@@SAXPAUtagEXCEPINFO@@PBVCException@@@Z
 ?Process@COleException@@SAJPBVCException@@@Z
 ?PtrOfIndex@COleSafeArray@@QAAXPAJPAPAX@Z
 ?PushStackArgs@CCmdTarget@@IAAJPAEPBEPAXGPAUtagDISPPARAMS@@PAIPAUtagVARIANT@@@Z
 ?put_Bold@CCeFont@@UAAJH@Z
 ?put_Charset@CCeFont@@UAAJF@Z
 ?put_Italic@CCeFont@@UAAJH@Z
 ?put_Name@CCeFont@@UAAJPAG@Z
 ?put_Size@CCeFont@@UAAJTtagCY@@@Z
 ?put_Strikethrough@CCeFont@@UAAJH@Z
 ?put_Underline@CCeFont@@UAAJH@Z
 ?put_Weight@CCeFont@@UAAJF@Z
 ?PutElement@COleSafeArray@@QAAXPAJPAX@Z
 ?PX_Blob@@YAHPAVCPropExchange@@PBGAAPAXPAX@Z
 ?PX_Bool@@YAHPAVCPropExchange@@PBGAAH@Z
 ?PX_Bool@@YAHPAVCPropExchange@@PBGAAHH@Z
 ?PX_Color@@YAHPAVCPropExchange@@PBGAAK@Z
 ?PX_Color@@YAHPAVCPropExchange@@PBGAAKK@Z
 ?PX_Currency@@YAHPAVCPropExchange@@PBGAATtagCY@@@Z
 ?PX_Currency@@YAHPAVCPropExchange@@PBGAATtagCY@@T2@@Z
 ?PX_Double@@YAHPAVCPropExchange@@PBGAAN@Z
 ?PX_Double@@YAHPAVCPropExchange@@PBGAANN@Z
 ?PX_Float@@YAHPAVCPropExchange@@PBGAAM@Z
 ?PX_Float@@YAHPAVCPropExchange@@PBGAAMM@Z
 ?PX_Font@@YAHPAVCPropExchange@@PBGAAVCFontHolder@@PBUtagFONTDESC@@PAUIFontDisp@@@Z
 ?PX_IUnknown@@YAHPAVCPropExchange@@PBGAAPAUIUnknown@@ABU_GUID@@PAU2@@Z
 ?PX_Long@@YAHPAVCPropExchange@@PBGAAJ@Z
 ?PX_Long@@YAHPAVCPropExchange@@PBGAAJJ@Z
 ?PX_Picture@@YAHPAVCPropExchange@@PBGAAVCPictureHolder@@@Z
 ?PX_Picture@@YAHPAVCPropExchange@@PBGAAVCPictureHolder@@2@Z
 ?PX_Short@@YAHPAVCPropExchange@@PBGAAF@Z
 ?PX_Short@@YAHPAVCPropExchange@@PBGAAFF@Z
 ?PX_String@@YAHPAVCPropExchange@@PBGAAVCString@@@Z
 ?PX_String@@YAHPAVCPropExchange@@PBGAAVCString@@1@Z
 ?PX_String@@YAHPAVCPropExchange@@PBGAAVCString@@ABV2@@Z
 ?PX_ULong@@YAHPAVCPropExchange@@PBGAAK@Z
 ?PX_ULong@@YAHPAVCPropExchange@@PBGAAKK@Z
 ?PX_UShort@@YAHPAVCPropExchange@@PBGAAG@Z
 ?PX_UShort@@YAHPAVCPropExchange@@PBGAAGG@Z
 ?PX_VBXFontConvert@@YAHPAVCPropExchange@@AAVCFontHolder@@@Z
 ?QueryAggregates@CCmdTarget@@QAAPAUIUnknown@@PBX@Z
 ?QueryFontInfo@CCeFont@@QAAJPAUHFONT__@@PAUtagTEXTMETRICW@@QAG@Z
 ?QueryGetData@XDataObject@COleDataSource@@UAAJPAUtagFORMATETC@@@Z
 ?QueryHitPoint@XViewObject@COleControl@@UAAJKPBUtagRECT@@UtagPOINT@@JPAK@Z
 ?QueryHitRect@XViewObject@COleControl@@UAAJKPBUtagRECT@@0JPAK@Z
 ?QueryInterface@CBlobProperty@@UAAJABU_GUID@@PAPAX@Z
 ?QueryInterface@CCeFont@@UAAJABU_GUID@@PAPAX@Z
 ?QueryInterface@CCeFont@@W3AAJABU_GUID@@PAPAX@Z
 ?QueryInterface@CCeFont@@W7AAJABU_GUID@@PAPAX@Z
 ?QueryInterface@CCeFont@@WBA@AAJABU_GUID@@PAPAX@Z
 ?QueryInterface@CCeFont@@WM@AAJABU_GUID@@PAPAX@Z
 ?QueryInterface@CInnerUnknown@@UAAJABU_GUID@@PAPAX@Z
 ?QueryInterface@COleConnPtContainer@@UAAJABU_GUID@@PAPAX@Z
 ?QueryInterface@COleDispatchImpl@@UAAJABU_GUID@@PAPAX@Z
 ?QueryInterface@CStreamImp@@UAAJABU_GUID@@PAPAX@Z
 ?QueryInterface@XAmbientProps@COleControlSite@@UAAJABU_GUID@@PAPAX@Z
 ?QueryInterface@XClassFactory@COleObjectFactory@@UAAJABU_GUID@@PAPAX@Z
 ?QueryInterface@XConnPt@CConnectionPoint@@UAAJABU_GUID@@PAPAX@Z
 ?QueryInterface@XDataObject@COleDataSource@@UAAJABU_GUID@@PAPAX@Z
 ?QueryInterface@XEnumVOID@CEnumArray@@UAAJABU_GUID@@PAPAX@Z
 ?QueryInterface@XEventSink@COleControlSite@@UAAJABU_GUID@@PAPAX@Z
 ?QueryInterface@XFontNotification@COleControl@@UAAJABU_GUID@@PAPAX@Z
 ?QueryInterface@XOleClientSite@COleControlSite@@UAAJABU_GUID@@PAPAX@Z
 ?QueryInterface@XOleContainer@COleControlContainer@@UAAJABU_GUID@@PAPAX@Z
 ?QueryInterface@XOleControl@COleControl@@UAAJABU_GUID@@PAPAX@Z
 ?QueryInterface@XOleControlSite@COleControlSite@@UAAJABU_GUID@@PAPAX@Z
 ?QueryInterface@XOleInPlaceActiveObject@COleControl@@UAAJABU_GUID@@PAPAX@Z
 ?QueryInterface@XOleInPlaceObject@COleControl@@UAAJABU_GUID@@PAPAX@Z
 ?QueryInterface@XOleIPFrame@COleControlContainer@@UAAJABU_GUID@@PAPAX@Z
 ?QueryInterface@XOleIPSite@COleControlSite@@UAAJABU_GUID@@PAPAX@Z
 ?QueryInterface@XOleObject@COleControl@@UAAJABU_GUID@@PAPAX@Z
 ?QueryInterface@XPerPropertyBrowsing@COleControl@@UAAJABU_GUID@@PAPAX@Z
 ?QueryInterface@XPersistMemory@COleControl@@UAAJABU_GUID@@PAPAX@Z
 ?QueryInterface@XPersistPropertyBag@COleControl@@UAAJABU_GUID@@PAPAX@Z
 ?QueryInterface@XPersistStorage@COleControl@@UAAJABU_GUID@@PAPAX@Z
 ?QueryInterface@XPersistStreamInit@COleControl@@UAAJABU_GUID@@PAPAX@Z
 ?QueryInterface@XPointerInactive@COleControl@@UAAJABU_GUID@@PAPAX@Z
 ?QueryInterface@XPropertyNotifySink@COleControlSite@@UAAJABU_GUID@@PAPAX@Z
 ?QueryInterface@XPropertyPage@COlePropertyPage@@UAAJABU_GUID@@PAPAX@Z
 ?QueryInterface@XPropNotifySink@COlePropertyPage@@UAAJABU_GUID@@PAPAX@Z
 ?QueryInterface@XProvideClassInfo@COleControl@@UAAJABU_GUID@@PAPAX@Z
 ?QueryInterface@XQuickActivate@COleControl@@UAAJABU_GUID@@PAPAX@Z
 ?QueryInterface@XSpecifyPropertyPages@COleControl@@UAAJABU_GUID@@PAPAX@Z
 ?QueryInterface@XViewObject@COleControl@@UAAJABU_GUID@@PAPAX@Z
 ?QuerySinkInterface@CConnectionPoint@@UAAPAUIUnknown@@PAU2@@Z
 ?QuerySinkInterface@XEventConnPt@COleControl@@UAAPAUIUnknown@@PAU3@@Z
 ?QueryTextMetrics@CCeFont@@UAAJPAUtagTEXTMETRICW@@@Z
 ?QueryTextMetrics@CFontHolder@@QAAXPAUtagTEXTMETRICW@@@Z
 ?QuickActivate@COleControlSite@@UAAHXZ
 ?QuickActivate@XQuickActivate@COleControl@@UAAJPAUtagQACONTAINER@@PAUtagQACONTROL@@@Z
 ?ReactivateAndUndo@XOleInPlaceObject@COleControl@@UAAJXZ
 ?Read@COleStreamFile@@UAAIPAXI@Z
 ?Read@CStreamImp@@UAAJPAXKPAK@Z
 ?ReadFromStream@CProperty@@QAAHPAUIStream@@@Z
 ?ReadFromStream@CPropertySection@@QAAHPAUIStream@@T_LARGE_INTEGER@@@Z
 ?ReadFromStream@CPropertySet@@QAAHPAUIStream@@@Z
 ?ReadNameDictFromStream@CPropertySection@@QAAHPAUIStream@@@Z
 ?RecreateControlWindow@COleControl@@QAAXXZ
 ?Redim@COleSafeArray@@QAAXPAUtagSAFEARRAYBOUND@@@Z
 ?Refresh@COleControl@@QAAXXZ
 ?Register@COleObjectFactory@@UAAHXZ
 ?RegisterAll@COleObjectFactory@@SAHXZ
 ?Release@CBlobProperty@@UAAKXZ
 ?Release@CCeFont@@UAAKXZ
 ?Release@CCeFont@@W3AAKXZ
 ?Release@CCeFont@@W7AAKXZ
 ?Release@CCeFont@@WBA@AAKXZ
 ?Release@CCeFont@@WM@AAKXZ
 ?Release@CInnerUnknown@@UAAKXZ
 ?Release@COleConnPtContainer@@UAAKXZ
 ?Release@COleDispatchImpl@@UAAKXZ
 ?Release@CStreamImp@@UAAKXZ
 ?Release@XAmbientProps@COleControlSite@@UAAKXZ
 ?Release@XClassFactory@COleObjectFactory@@UAAKXZ
 ?Release@XConnPt@CConnectionPoint@@UAAKXZ
 ?Release@XDataObject@COleDataSource@@UAAKXZ
 ?Release@XEnumVOID@CEnumArray@@UAAKXZ
 ?Release@XEventSink@COleControlSite@@UAAKXZ
 ?Release@XFontNotification@COleControl@@UAAKXZ
 ?Release@XOleClientSite@COleControlSite@@UAAKXZ
 ?Release@XOleContainer@COleControlContainer@@UAAKXZ
 ?Release@XOleControl@COleControl@@UAAKXZ
 ?Release@XOleControlSite@COleControlSite@@UAAKXZ
 ?Release@XOleInPlaceActiveObject@COleControl@@UAAKXZ
 ?Release@XOleInPlaceObject@COleControl@@UAAKXZ
 ?Release@XOleIPFrame@COleControlContainer@@UAAKXZ
 ?Release@XOleIPSite@COleControlSite@@UAAKXZ
 ?Release@XOleObject@COleControl@@UAAKXZ
 ?Release@XPerPropertyBrowsing@COleControl@@UAAKXZ
 ?Release@XPersistMemory@COleControl@@UAAKXZ
 ?Release@XPersistPropertyBag@COleControl@@UAAKXZ
 ?Release@XPersistStorage@COleControl@@UAAKXZ
 ?Release@XPersistStreamInit@COleControl@@UAAKXZ
 ?Release@XPointerInactive@COleControl@@UAAKXZ
 ?Release@XPropertyNotifySink@COleControlSite@@UAAKXZ
 ?Release@XPropertyPage@COlePropertyPage@@UAAKXZ
 ?Release@XPropNotifySink@COlePropertyPage@@UAAKXZ
 ?Release@XProvideClassInfo@COleControl@@UAAKXZ
 ?Release@XQuickActivate@COleControl@@UAAKXZ
 ?Release@XSpecifyPropertyPages@COleControl@@UAAKXZ
 ?Release@XViewObject@COleControl@@UAAKXZ
 ?ReleaseCaches@COleControl@@IAAXXZ
 ?ReleaseCapture@COleControl@@QAAHXZ
 ?ReleaseDC@COleControl@@QAAHPAVCDC@@@Z
 ?ReleaseDispatch@COleDispatchDriver@@QAAXXZ
 ?ReleaseFont@CFontHolder@@QAAXXZ
 ?ReleaseHfont@CCeFont@@UAAJPAUHFONT__@@@Z
 ?Remove@?$CTypedSimpleList@PAVCOleControlLock@@@@QAAHPAVCOleControlLock@@@Z
 ?Remove@?$CTypedSimpleList@PAVCOleObjectFactory@@@@QAAHPAVCOleObjectFactory@@@Z
 ?Remove@CPropertySection@@QAAXK@Z
 ?Remove@CPropertySet@@QAAXU_GUID@@@Z
 ?Remove@CPropertySet@@QAAXU_GUID@@K@Z
 ?RemoveAll@CPropertySection@@QAAXXZ
 ?RemoveAll@CPropertySet@@QAAXXZ
 ?RemoveMenus@XOleIPFrame@COleControlContainer@@UAAJPAUHMENU__@@@Z
 ?ReparentControlWindow@COleControl@@UAAXPAUHWND__@@0@Z
 ?RequestAsynchronousExchange@COleControl@@QAAXK@Z
 ?RequestBorderSpace@XOleIPFrame@COleControlContainer@@UAAJPBUtagRECT@@@Z
 ?RequestLicKey@XClassFactory@COleObjectFactory@@UAAJKPAPAG@Z
 ?RequestNewObjectLayout@XOleClientSite@COleControlSite@@UAAJXZ
 ?Reset@XEnumVOID@CEnumArray@@UAAJXZ
 ?ResetStockProps@COleControl@@QAAXXZ
 ?ResetVersion@COleControl@@QAAXK@Z
 ?ResizeBorder@XOleInPlaceActiveObject@COleControl@@UAAJPBUtagRECT@@PAUIOleInPlaceUIWindow@@H@Z
 ?ResizeFrameWindow@COleControl@@MAAXHH@Z
 ?ResizeOneDim@COleSafeArray@@QAAXK@Z
 ?ResizeOpenControl@COleControl@@IAAXHH@Z
 ?RestoreFont@CFontHolder@@QAAXXZ
 ?Revert@CStreamImp@@UAAJXZ
 ?RoundDiv@@YAJJJ@Z
 ?RoundFloatDiv@CCeFont@@SANNN@Z
 ?RunAutomated@CWinApp@@QAAHXZ
 ?RunEmbedded@CWinApp@@QAAHXZ
 ?SafeSetProperty@COleControlSite@@UAAHJGZZ
 ?Save@CBlobProperty@@UAAJPAUIStream@@H@Z
 ?Save@CCeFont@@UAAJPAUIPropertyBag@@HH@Z
 ?Save@CCeFont@@UAAJPAUIStream@@H@Z
 ?Save@CCeFont@@W3AAJPAUIStream@@H@Z
 ?Save@CStreamImp@@QAAJPAX@Z
 ?Save@XPersistMemory@COleControl@@UAAJPAXHK@Z
 ?Save@XPersistPropertyBag@COleControl@@UAAJPAUIPropertyBag@@HH@Z
 ?Save@XPersistStorage@COleControl@@UAAJPAUIStorage@@H@Z
 ?Save@XPersistStreamInit@COleControl@@UAAJPAUIStream@@H@Z
 ?SaveCompleted@XPersistStorage@COleControl@@UAAJPAUIStorage@@@Z
 ?SaveObject@XOleClientSite@COleControlSite@@UAAJXZ
 ?SaveState@COleControl@@IAAJPAUIStream@@@Z
 ?Scroll@XOleIPSite@COleControlSite@@UAAJUtagSIZE@@@Z
 ?ScrollChildren@COleControlContainer@@UAAXHH@Z
 ?ScrollWindow@COleControl@@QAAXHHPBUtagRECT@@0@Z
 ?Seek@COleStreamFile@@UAAJJI@Z
 ?Seek@CStreamImp@@UAAJT_LARGE_INTEGER@@KPAT_ULARGE_INTEGER@@@Z
 ?Select@CFontHolder@@QAAPAVCFont@@PAVCDC@@JJ@Z
 ?SelectFontObject@COleControl@@QAAPAVCFont@@PAVCDC@@AAVCFontHolder@@@Z
 ?SelectStockFont@COleControl@@QAAPAVCFont@@PAVCDC@@@Z
 ?SendAdvise@COleControl@@IAAXI@Z
 ?SendDlgItemMessage@COleControlContainer@@UAAJHIIJ@Z
 ?SendMnemonic@COleControlSite@@QAAXPAUtagMSG@@@Z
 ?Serialize@COleControl@@MAAXAAVCArchive@@@Z
 ?SerializeExtent@COleControl@@QAAXAAVCArchive@@@Z
 ?SerializeStockProps@COleControl@@QAAXAAVCArchive@@@Z
 ?SerializeVersion@COleControl@@QAAKAAVCArchive@@KH@Z
 ?Set@CProperty@@QAAHKQAXK@Z
 ?Set@CProperty@@QAAHQAX@Z
 ?Set@CProperty@@QAAHQAXK@Z
 ?Set@CPropertySection@@QAAHKPAX@Z
 ?Set@CPropertySection@@QAAHKPAXK@Z
 ?Set@CPropertySet@@QAAHU_GUID@@KPAX@Z
 ?Set@CPropertySet@@QAAHU_GUID@@KPAXK@Z
 ?SetActiveObject@XOleIPFrame@COleControlContainer@@UAAJPAUIOleInPlaceActiveObject@@PBG@Z
 ?SetAdvise@XViewObject@COleControl@@UAAJKKPAUIAdviseSink@@@Z
 ?SetAppearance@COleControl@@QAAXF@Z
 ?SetAt@CAfxOleSymbolTable@@QAAXHPBG@Z
 ?SetBackColor@COleControl@@QAAXK@Z
 ?SetBorderSpace@XOleIPFrame@COleControlContainer@@UAAJPBUtagRECT@@@Z
 ?SetBorderStyle@COleControl@@QAAXF@Z
 ?SetCapture@COleControl@@QAAPAVCWnd@@XZ
 ?SetClassID@CPropertySet@@QAAXU_GUID@@@Z
 ?SetClientSite@XOleObject@COleControl@@UAAJPAUIOleClientSite@@@Z
 ?SetColor@CMonthCalCtrl@@QAAKHK@Z
 ?SetColorScheme@XOleObject@COleControl@@UAAJPAUtagLOGPALETTE@@@Z
 ?SetContentExtent@XQuickActivate@COleControl@@UAAJPAUtagSIZE@@@Z
 ?SetControl@CReflectorWnd@@QAAXPAVCOleControl@@@Z
 ?SetControlSize@COleControl@@QAAHHH@Z
 ?SetControlStatus@COlePropertyPage@@QAAHIH@Z
 ?SetCurrency@COleCurrency@@QAAXJJ@Z
 ?SetCurSel@CMonthCalCtrl@@QAAHABVCOleDateTime@@@Z
 ?SetCurSel@CMonthCalCtrl@@QAAHABVCTime@@@Z
 ?SetCurSel@CMonthCalCtrl@@QAAHQAU_SYSTEMTIME@@@Z
 ?SetData@XDataObject@COleDataSource@@UAAJPAUtagFORMATETC@@PAUtagSTGMEDIUM@@H@Z
 ?SetDate@COleDateTime@@QAAHHHH@Z
 ?SetDateTime@COleDateTime@@QAAHHHHHHH@Z
 ?SetDateTimeSpan@COleDateTimeSpan@@QAAXJHHH@Z
 ?SetDayState@CMonthCalCtrl@@QAAHHPAK@Z
 ?SetDefaultButton@COccManager@@SAXPAVCWnd@@H@Z
 ?SetDefaultButton@COleControlSite@@QAAXH@Z
 ?SetDialogResource@COlePropertyPage@@QAAXPAX@Z
 ?SetDlgCtrlID@COleControlSite@@UAAHH@Z
 ?SetDlgItemInt@COleControlContainer@@UAAXHIH@Z
 ?SetDlgItemText@COleControlContainer@@UAAXHPBG@Z
 ?SetEnabled@COleControl@@QAAXH@Z
 ?SetExtent@COleControlSite@@IAAHXZ
 ?SetExtent@XOleObject@COleControl@@UAAJKPAUtagSIZE@@@Z
 ?SetFirstDayOfWeek@CMonthCalCtrl@@QAAHHPAH@Z
 ?SetFocus@COleControl@@QAAPAVCWnd@@XZ
 ?SetFocus@COleControlSite@@UAAPAVCWnd@@XZ
 ?SetFont@CFontHolder@@QAAXPAUIFont@@@Z
 ?SetFont@COleControl@@QAAXPAUIFontDisp@@@Z
 ?SetFontNotifySink@CFontHolder@@QAAXPAUIPropertyNotifySink@@@Z
 ?SetForeColor@COleControl@@QAAXK@Z
 ?SetFormat@CDateTimeCtrl@@QAAHPBG@Z
 ?SetFormatID@CPropertySection@@QAAXU_GUID@@@Z
 ?SetFormatVersion@CPropertySet@@QAAXG@Z
 ?SetHdc@CCeFont@@UAAJPAUHDC__@@@Z
 ?SetHelpInfo@COlePropertyPage@@QAAXPBG0K@Z
 ?SetHostNames@XOleObject@COleControl@@UAAJPBG0@Z
 ?SetID@CProperty@@QAAXK@Z
 ?SetInitialDataFormats@COleControl@@MAAXXZ
 ?SetInitialSize@COleControl@@QAAXHH@Z
 ?SetLength@COleStreamFile@@UAAXK@Z
 ?SetMaxSelCount@CMonthCalCtrl@@QAAHH@Z
 ?SetMenu@XOleIPFrame@COleControlContainer@@UAAJPAUHMENU__@@PAXPAUHWND__@@@Z
 ?SetModifiedFlag@COleControl@@QAAXH@Z
 ?SetModifiedFlag@COlePropertyPage@@QAAXH@Z
 ?SetMoniker@XOleObject@COleControl@@UAAJKPAUIMoniker@@@Z
 ?SetMonthCalColor@CDateTimeCtrl@@QAAKHK@Z
 ?SetMonthCalFont@CDateTimeCtrl@@QAAXPAUHFONT__@@H@Z
 ?SetMonthDelta@CMonthCalCtrl@@QAAHH@Z
 ?SetName@CPropertySection@@QAAHKPBG@Z
 ?SetNotPermitted@COleControl@@QAAXXZ
 ?SetNotSupported@CCmdTarget@@QAAXXZ
 ?SetNotSupported@COleControl@@QAAXXZ
 ?SetObjectRects@XOleInPlaceObject@COleControl@@UAAJPBUtagRECT@@0@Z
 ?SetObjects@XPropertyPage@COlePropertyPage@@UAAJKPAPAUIUnknown@@@Z
 ?SetOSVersion@CPropertySet@@QAAXK@Z
 ?SetPageName@COlePropertyPage@@QAAXPBG@Z
 ?SetPageSite@XPropertyPage@COlePropertyPage@@UAAJPAUIPropertyPageSite@@@Z
 ?SetPropCheck@COlePropertyPage@@QAAHPBGH@Z
 ?SetProperty@COleControlSite@@UAAXJGZZ
 ?SetProperty@COleDispatchDriver@@QAAXJGZZ
 ?SetPropertyV@COleControlSite@@UAAXJGPAD@Z
 ?SetPropIndex@COlePropertyPage@@QAAHPBGH@Z
 ?SetPropRadio@COlePropertyPage@@QAAHPBGH@Z
 ?SetPropsetData@COleControl@@IAAHPAUtagFORMATETC@@PAUtagSTGMEDIUM@@ABU_GUID@@@Z
 ?SetPropText@COlePropertyPage@@QAAHPBGAAE@Z
 ?SetPropText@COlePropertyPage@@QAAHPBGAAF@Z
 ?SetPropText@COlePropertyPage@@QAAHPBGAAH@Z
 ?SetPropText@COlePropertyPage@@QAAHPBGAAI@Z
 ?SetPropText@COlePropertyPage@@QAAHPBGAAJ@Z
 ?SetPropText@COlePropertyPage@@QAAHPBGAAK@Z
 ?SetPropText@COlePropertyPage@@QAAHPBGAAM@Z
 ?SetPropText@COlePropertyPage@@QAAHPBGAAN@Z
 ?SetPropText@COlePropertyPage@@QAAHPBGAAVCString@@@Z
 ?SetRange@CDateTimeCtrl@@QAAHPBVCOleDateTime@@0@Z
 ?SetRange@CDateTimeCtrl@@QAAHPBVCTime@@0@Z
 ?SetRange@CMonthCalCtrl@@QAAHPBVCOleDateTime@@0@Z
 ?SetRange@CMonthCalCtrl@@QAAHPBVCTime@@0@Z
 ?SetRange@CMonthCalCtrl@@QAAHQAU_SYSTEMTIME@@0@Z
 ?SetRatio@CCeFont@@UAAJJJ@Z
 ?SetRectInContainer@COleControl@@QAAHPBUtagRECT@@@Z
 ?SetSectionName@CPropertySection@@QAAHPBG@Z
 ?SetSelRange@CMonthCalCtrl@@QAAHABVCOleDateTime@@0@Z
 ?SetSelRange@CMonthCalCtrl@@QAAHABVCTime@@0@Z
 ?SetSelRange@CMonthCalCtrl@@QAAHQAU_SYSTEMTIME@@0@Z
 ?SetSize@CStreamImp@@UAAJT_ULARGE_INTEGER@@@Z
 ?SetStandardProp@CCmdTarget@@IAAJPBUAFX_DISPMAP_ENTRY@@PAUtagDISPPARAMS@@PAI@Z
 ?SetStatus@COleCurrency@@QAAXW4CurrencyStatus@1@@Z
 ?SetStatus@COleDateTime@@QAAXW4DateTimeStatus@1@@Z
 ?SetStatus@COleDateTimeSpan@@QAAXW4DateTimeSpanStatus@1@@Z
 ?SetStatusText@XOleIPFrame@COleControlContainer@@UAAJPBG@Z
 ?SetString@COleVariant@@QAAXPBGG@Z
 ?SetSysString@CString@@QBAPAGPAPAG@Z
 ?SetText@COleControl@@QAAXPBG@Z
 ?SetTime@CDateTimeCtrl@@QAAHABVCOleDateTime@@@Z
 ?SetTime@CDateTimeCtrl@@QAAHPAU_SYSTEMTIME@@@Z
 ?SetTime@CDateTimeCtrl@@QAAHPBVCTime@@@Z
 ?SetTime@COleDateTime@@QAAHHHH@Z
 ?SetToday@CMonthCalCtrl@@QAAXABVCOleDateTime@@@Z
 ?SetToday@CMonthCalCtrl@@QAAXPBVCTime@@@Z
 ?SetToday@CMonthCalCtrl@@QAAXQAU_SYSTEMTIME@@@Z
 ?SetType@CProperty@@QAAXK@Z
 ?SetWindowPos@COleControlSite@@UAAHPBVCWnd@@HHHHI@Z
 ?SetWindowTextW@COleControlSite@@UAAXPBG@Z
 ?Show@XPropertyPage@COlePropertyPage@@UAAJI@Z
 ?ShowObject@XOleClientSite@COleControlSite@@UAAJXZ
 ?ShowPropertyFrame@XOleControlSite@COleControlSite@@UAAJXZ
 ?ShowWindow@COleControlSite@@UAAHH@Z
 ?SizeMinReq@CMonthCalCtrl@@QAAHH@Z
 ?Skip@XEnumVOID@CEnumArray@@UAAJK@Z
 ?SplitDialogTemplate@COccManager@@UAAPAUDLGTEMPLATE@@PBU2@PAPAUDLGITEMTEMPLATE@@@Z
 ?Stat@CStreamImp@@UAAJPAUtagSTATSTG@@K@Z
 ?T2COLE@@YAPBGPBG@Z
 ?T2OLE@@YAPAGPAG@Z
 ?TASKSTRINGOLE2T@@YAPAGPAG@Z
 ?ThrowError@COleControl@@QAAXJII@Z
 ?ThrowError@COleControl@@QAAXJPBGI@Z
 ?TransformCoords@COleControl@@QAAXPAU_POINTL@@PAUtagPOINTF@@K@Z
 ?TransformCoords@XOleControlSite@COleControlSite@@UAAJPAU_POINTL@@PAUtagPOINTF@@K@Z
 ?TranslateAcceleratorW@XOleControlSite@COleControlSite@@UAAJPAUtagMSG@@K@Z
 ?TranslateAcceleratorW@XOleInPlaceActiveObject@COleControl@@UAAJPAUtagMSG@@@Z
 ?TranslateAcceleratorW@XOleIPFrame@COleControlContainer@@UAAJPAUtagMSG@@G@Z
 ?TranslateAcceleratorW@XPropertyPage@COlePropertyPage@@UAAJPAUtagMSG@@@Z
 ?TranslateColor@COleControl@@QAAKKPAUHPALETTE__@@@Z
 ?UIActivateControl@COccManager@@KAXPAVCWnd@@@Z
 ?UIDeactivate@XOleInPlaceObject@COleControl@@UAAJXZ
 ?UIDeactivateIfNecessary@COccManager@@KAXPAVCWnd@@0@Z
 ?UnaccessData@COleSafeArray@@QAAXXZ
 ?Unadvise@XConnPt@CConnectionPoint@@UAAJK@Z
 ?Unadvise@XOleObject@COleControl@@UAAJK@Z
 ?Unfreeze@XViewObject@COleControl@@UAAJK@Z
 ?UninitFontObject@CCeFont@@SAJXZ
 ?Unlock@COleSafeArray@@QAAXXZ
 ?Unlock@CUnknown@@UAAXXZ
 ?UnlockRange@COleStreamFile@@UAAXKK@Z
 ?UnlockRegion@CStreamImp@@UAAJT_ULARGE_INTEGER@@0K@Z
 ?UnlockResource@@YAHPAX@Z
 ?Unregister@COleObjectFactory@@QAAHXZ
 ?UnregisterAll@COleObjectFactory@@SAHXZ
 ?Update@XOleObject@COleControl@@UAAJXZ
 ?UpdateFont@CCeFont@@QAAJXZ
 ?UpdateFr@CCeFont@@QAAJPAUHFONT__@@PAUtagTEXTMETRICW@@QAG@Z
 ?UpdateRegistry@COleObjectFactory@@MAAHH@Z
 ?UpdateRegistry@COleObjectFactory@@QAAXPBG@Z
 ?UpdateRegistryAll@COleObjectFactory@@SAHH@Z
 ?VerifyLicenseKey@COleObjectFactory@@MAAHPAG@Z
 ?VerifyUserLicense@COleObjectFactory@@MAAHXZ
 ?wce_CLSIDFromProgID@@YAJPBGPAU_GUID@@@Z
 ?wce_CoDisconnectObject@@YAJPAUIUnknown@@K@Z
 ?wce_convertDialogItemTemplate@@YAPAEPAUDLGITEMTEMPLATE@@PAUDLGITEMTEMPLATEEX@@K@Z
 ?wce_convertDialogTemplate@@YAPAEPAUDLGTEMPLATE@@PAUDLGTEMPLATEEX@@K@Z
 ?wce_CoTaskMemRealloc@@YAPAXPAXKK@Z
 ?wce_CreateStreamOnHGlobal@@YAJPAXHPAPAUIStream@@@Z
 ?wce_IMMWndProc@@YAJPAUHWND__@@IIJ@Z
 ?wce_OleCreateFontIndirect@@YAJPAXABU_GUID@@PAPAX@Z
 ?wce_OleInitialize@@YAJPAX@Z
 ?wce_OleLoadFromStream@@YAJPAUIStream@@ABU_GUID@@PAPAX@Z
 ?wce_OleSaveToStream@@YAJPAUIPersistStream@@PAUIStream@@@Z
 ?wce_OleTranslateColor@@YAJKPAUHPALETTE__@@PAK@Z
 ?wce_OleUninitialize@@YAXXZ
 ?wce_RegGetMiscStatus@@YAJABU_GUID@@PAK@Z
 ?wce_ReleaseStgMedium@@YAXPAUtagSTGMEDIUM@@@Z
 ?wce_UnregisterOleWindowClasses@@YAXXZ
 ?WillAmbientsBeValidDuringLoad@COleControl@@QAAHXZ
 ?WindowProc@COleControl@@UAAJIIJ@Z
 ?WindowProc@COlePropertyPage@@MAAJIIJ@Z
 ?WindowProc@CParkingWnd@@UAAJIIJ@Z
 ?WindowProc@CReflectorWnd@@MAAJIIJ@Z
 ?Write@COleStreamFile@@UAAXPBXI@Z
 ?Write@CStreamImp@@UAAJPBXKPAK@Z
 ?WriteNameDictToStream@CPropertySection@@QAAHPAUIStream@@@Z
 ?WriteToStream@CProperty@@QAAHPAUIStream@@@Z
 ?WriteToStream@CPropertySection@@QAAHPAUIStream@@@Z
 ?WriteToStream@CPropertySet@@QAAHPAUIStream@@@Z
 LockResource
 RawDllMain
